ARM GAS  C:\cygwin\tmp\cceEWcVb.s 			page 1


   1              		.syntax unified
   2              		.cpu cortex-m4
   3              		.fpu softvfp
   4              		.eabi_attribute 20, 1	@ Tag_ABI_FP_denormal
   5              		.eabi_attribute 21, 1	@ Tag_ABI_FP_exceptions
   6              		.eabi_attribute 23, 3	@ Tag_ABI_FP_number_model
   7              		.eabi_attribute 24, 1	@ Tag_ABI_align8_needed
   8              		.eabi_attribute 25, 1	@ Tag_ABI_align8_preserved
   9              		.eabi_attribute 26, 1	@ Tag_ABI_enum_size
  10              		.eabi_attribute 30, 4	@ Tag_ABI_optimization_goals
  11              		.eabi_attribute 34, 1	@ Tag_CPU_unaligned_access
  12              		.eabi_attribute 18, 4	@ Tag_ABI_PCS_wchar_t
  13              		.file	"diskio.c"
  14              	@ GNU C (GNU Tools for ARM Embedded Processors) version 4.9.3 20141119 (release) [ARM/embedded-4_9-
  15              	@	compiled by GNU C version 4.7.4, GMP version 4.3.2, MPFR version 2.4.2, MPC version 0.8.1
  16              	@ GGC heuristics: --param ggc-min-expand=100 --param ggc-min-heapsize=131072
  17              	@ options passed:  -I . -I Inc -I gui -I emWin -I emWin/config
  18              	@ -I freemodbus-v1.5.0/port -I freemodbus-v1.5.0/modbus/include
  19              	@ -I freemodbus-v1.5.0/modbus/ascii -I freemodbus-v1.5.0/modbus/rtu
  20              	@ -I ../STM32Cube_FW_F4_V1.4.0/Drivers/CMSIS/Include
  21              	@ -I ../STM32Cube_FW_F4_V1.4.0/Drivers/CMSIS/Device/ST/STM32F4xx/Include
  22              	@ -I ../STM32Cube_FW_F4_V1.4.0/Drivers/STM32F4xx_HAL_Driver/Inc
  23              	@ -I ../STM32Cube_FW_F4_V1.4.0/Drivers/CMSIS/Include
  24              	@ -I ../STM32Cube_FW_F4_V1.4.0/Middlewares/ST/STemWin/inc
  25              	@ -I ../STM32Cube_FW_F4_V1.4.0/Middlewares/Third_Party/FatFs/src
  26              	@ -I ../STM32Cube_FW_F4_V1.4.0/Middlewares/Third_Party/FatFs/src/drivers/sd
  27              	@ -I ./drivers/display -imultilib armv7e-m
  28              	@ -iprefix c:\program files\gcc-arm-none-eabi-4_9-2014\bin\../lib/gcc/arm-none-eabi/4.9.3/
  29              	@ -isysroot c:\program files\gcc-arm-none-eabi-4_9-2014\bin\../arm-none-eabi
  30              	@ -MD out/diskio.d -MF out/diskio.d -MP -MQ out/diskio.o
  31              	@ -D__USES_INITFINI__ -D USE_HAL_DRIVER -D STM32F4XX -D HSE_VALUE=25000000
  32              	@ -D STM32F437xx -D USE_FULL_ASSERT -D __GNUC__ -D __VFP_FP__
  33              	@ -D ARM_MATH_CM4 -D LOG_INFO
  34              	@ ../STM32Cube_FW_F4_V1.4.0/Middlewares/Third_Party/FatFs/src/diskio.c
  35              	@ -mcpu=cortex-m4 -mthumb -auxbase-strip out/diskio.o -g -ggdb3 -Os -Os
  36              	@ -Wall -Wstrict-prototypes -Wextra -std=gnu90 -ffunction-sections
  37              	@ -fdata-sections -fverbose-asm
  38              	@ options enabled:  -faggressive-loop-optimizations -fauto-inc-dec
  39              	@ -fbranch-count-reg -fcaller-saves -fcombine-stack-adjustments -fcommon
  40              	@ -fcompare-elim -fcprop-registers -fcrossjumping -fcse-follow-jumps
  41              	@ -fdata-sections -fdefer-pop -fdelete-null-pointer-checks -fdevirtualize
  42              	@ -fdevirtualize-speculatively -fdwarf2-cfi-asm -fearly-inlining
  43              	@ -feliminate-unused-debug-types -fexpensive-optimizations
  44              	@ -fforward-propagate -ffunction-cse -ffunction-sections -fgcse -fgcse-lm
  45              	@ -fgnu-runtime -fgnu-unique -fguess-branch-probability
  46              	@ -fhoist-adjacent-loads -fident -fif-conversion -fif-conversion2
  47              	@ -findirect-inlining -finline -finline-atomics -finline-functions
  48              	@ -finline-functions-called-once -finline-small-functions -fipa-cp
  49              	@ -fipa-profile -fipa-pure-const -fipa-reference -fipa-sra
  50              	@ -fira-hoist-pressure -fira-share-save-slots -fira-share-spill-slots
  51              	@ -fisolate-erroneous-paths-dereference -fivopts -fkeep-static-consts
  52              	@ -fleading-underscore -fmath-errno -fmerge-constants -fmerge-debug-strings
  53              	@ -fomit-frame-pointer -foptimize-sibling-calls -fpartial-inlining
  54              	@ -fpeephole -fpeephole2 -fprefetch-loop-arrays -freg-struct-return
  55              	@ -freorder-blocks -freorder-functions -frerun-cse-after-loop
  56              	@ -fsched-critical-path-heuristic -fsched-dep-count-heuristic
  57              	@ -fsched-group-heuristic -fsched-interblock -fsched-last-insn-heuristic
ARM GAS  C:\cygwin\tmp\cceEWcVb.s 			page 2


  58              	@ -fsched-pressure -fsched-rank-heuristic -fsched-spec
  59              	@ -fsched-spec-insn-heuristic -fsched-stalled-insns-dep -fschedule-insns2
  60              	@ -fsection-anchors -fshow-column -fsigned-zeros -fsplit-ivs-in-unroller
  61              	@ -fsplit-wide-types -fstrict-aliasing -fstrict-overflow
  62              	@ -fstrict-volatile-bitfields -fsync-libcalls -fthread-jumps
  63              	@ -ftoplevel-reorder -ftrapping-math -ftree-bit-ccp -ftree-builtin-call-dce
  64              	@ -ftree-ccp -ftree-ch -ftree-coalesce-vars -ftree-copy-prop
  65              	@ -ftree-copyrename -ftree-cselim -ftree-dce -ftree-dominator-opts
  66              	@ -ftree-dse -ftree-forwprop -ftree-fre -ftree-loop-if-convert
  67              	@ -ftree-loop-im -ftree-loop-ivcanon -ftree-loop-optimize
  68              	@ -ftree-parallelize-loops= -ftree-phiprop -ftree-pre -ftree-pta
  69              	@ -ftree-reassoc -ftree-scev-cprop -ftree-sink -ftree-slsr -ftree-sra
  70              	@ -ftree-switch-conversion -ftree-tail-merge -ftree-ter -ftree-vrp
  71              	@ -funit-at-a-time -fvar-tracking -fvar-tracking-assignments -fverbose-asm
  72              	@ -fzero-initialized-in-bss -mlittle-endian -mlra
  73              	@ -mpic-data-is-text-relative -msched-prolog -mthumb -munaligned-access
  74              	@ -mvectorize-with-neon-quad
  75              	
  76              		.text
  77              	.Ltext0:
  78              		.cfi_sections	.debug_frame
  79              		.section	.text.disk_initialize,"ax",%progbits
  80              		.align	1
  81              		.global	disk_initialize
  82              		.thumb
  83              		.thumb_func
  84              		.type	disk_initialize, %function
  85              	disk_initialize:
  86              	.LFB123:
  87              		.file 1 "../STM32Cube_FW_F4_V1.4.0/Middlewares/Third_Party/FatFs/src/diskio.c"
   1:../STM32Cube_FW_F4_V1.4.0/Middlewares/Third_Party/FatFs/src/diskio.c **** /*-----------------------------------------------------------------------*/
   2:../STM32Cube_FW_F4_V1.4.0/Middlewares/Third_Party/FatFs/src/diskio.c **** /* Low level disk I/O module skeleton for FatFs     (C)ChaN, 2013        */
   3:../STM32Cube_FW_F4_V1.4.0/Middlewares/Third_Party/FatFs/src/diskio.c **** /*                                                                       */
   4:../STM32Cube_FW_F4_V1.4.0/Middlewares/Third_Party/FatFs/src/diskio.c **** /*   Portions COPYRIGHT 2014 STMicroelectronics                          */
   5:../STM32Cube_FW_F4_V1.4.0/Middlewares/Third_Party/FatFs/src/diskio.c **** /*   Portions Copyright (C) 2012, ChaN, all right reserved               */
   6:../STM32Cube_FW_F4_V1.4.0/Middlewares/Third_Party/FatFs/src/diskio.c **** /*-----------------------------------------------------------------------*/
   7:../STM32Cube_FW_F4_V1.4.0/Middlewares/Third_Party/FatFs/src/diskio.c **** /* If a working storage control module is available, it should be        */
   8:../STM32Cube_FW_F4_V1.4.0/Middlewares/Third_Party/FatFs/src/diskio.c **** /* attached to the FatFs via a glue function rather than modifying it.   */
   9:../STM32Cube_FW_F4_V1.4.0/Middlewares/Third_Party/FatFs/src/diskio.c **** /* This is an example of glue functions to attach various exsisting      */
  10:../STM32Cube_FW_F4_V1.4.0/Middlewares/Third_Party/FatFs/src/diskio.c **** /* storage control module to the FatFs module with a defined API.        */
  11:../STM32Cube_FW_F4_V1.4.0/Middlewares/Third_Party/FatFs/src/diskio.c **** /*-----------------------------------------------------------------------*/
  12:../STM32Cube_FW_F4_V1.4.0/Middlewares/Third_Party/FatFs/src/diskio.c **** 
  13:../STM32Cube_FW_F4_V1.4.0/Middlewares/Third_Party/FatFs/src/diskio.c **** /**
  14:../STM32Cube_FW_F4_V1.4.0/Middlewares/Third_Party/FatFs/src/diskio.c ****   ******************************************************************************
  15:../STM32Cube_FW_F4_V1.4.0/Middlewares/Third_Party/FatFs/src/diskio.c ****   * @file    diskio.c 
  16:../STM32Cube_FW_F4_V1.4.0/Middlewares/Third_Party/FatFs/src/diskio.c ****   * @author  MCD Application Team
  17:../STM32Cube_FW_F4_V1.4.0/Middlewares/Third_Party/FatFs/src/diskio.c ****   * @version V1.2.1
  18:../STM32Cube_FW_F4_V1.4.0/Middlewares/Third_Party/FatFs/src/diskio.c ****   * @date    20-November-2014
  19:../STM32Cube_FW_F4_V1.4.0/Middlewares/Third_Party/FatFs/src/diskio.c ****   * @brief   FatFs low level disk I/O module.
  20:../STM32Cube_FW_F4_V1.4.0/Middlewares/Third_Party/FatFs/src/diskio.c ****   ******************************************************************************
  21:../STM32Cube_FW_F4_V1.4.0/Middlewares/Third_Party/FatFs/src/diskio.c ****   * @attention
  22:../STM32Cube_FW_F4_V1.4.0/Middlewares/Third_Party/FatFs/src/diskio.c ****   *
  23:../STM32Cube_FW_F4_V1.4.0/Middlewares/Third_Party/FatFs/src/diskio.c ****   * Licensed under MCD-ST Liberty SW License Agreement V2, (the "License");
  24:../STM32Cube_FW_F4_V1.4.0/Middlewares/Third_Party/FatFs/src/diskio.c ****   * You may not use this file except in compliance with the License.
  25:../STM32Cube_FW_F4_V1.4.0/Middlewares/Third_Party/FatFs/src/diskio.c ****   * You may obtain a copy of the License at:
  26:../STM32Cube_FW_F4_V1.4.0/Middlewares/Third_Party/FatFs/src/diskio.c ****   *
  27:../STM32Cube_FW_F4_V1.4.0/Middlewares/Third_Party/FatFs/src/diskio.c ****   *        http://www.st.com/software_license_agreement_liberty_v2
ARM GAS  C:\cygwin\tmp\cceEWcVb.s 			page 3


  28:../STM32Cube_FW_F4_V1.4.0/Middlewares/Third_Party/FatFs/src/diskio.c ****   *
  29:../STM32Cube_FW_F4_V1.4.0/Middlewares/Third_Party/FatFs/src/diskio.c ****   * Unless required by applicable law or agreed to in writing, software 
  30:../STM32Cube_FW_F4_V1.4.0/Middlewares/Third_Party/FatFs/src/diskio.c ****   * distributed under the License is distributed on an "AS IS" BASIS, 
  31:../STM32Cube_FW_F4_V1.4.0/Middlewares/Third_Party/FatFs/src/diskio.c ****   * WITHOUT WARRANTIES OR CONDITIONS OF ANY KIND, either express or implied.
  32:../STM32Cube_FW_F4_V1.4.0/Middlewares/Third_Party/FatFs/src/diskio.c ****   * See the License for the specific language governing permissions and
  33:../STM32Cube_FW_F4_V1.4.0/Middlewares/Third_Party/FatFs/src/diskio.c ****   * limitations under the License.
  34:../STM32Cube_FW_F4_V1.4.0/Middlewares/Third_Party/FatFs/src/diskio.c ****   *
  35:../STM32Cube_FW_F4_V1.4.0/Middlewares/Third_Party/FatFs/src/diskio.c ****   ******************************************************************************
  36:../STM32Cube_FW_F4_V1.4.0/Middlewares/Third_Party/FatFs/src/diskio.c ****   */ 
  37:../STM32Cube_FW_F4_V1.4.0/Middlewares/Third_Party/FatFs/src/diskio.c **** 
  38:../STM32Cube_FW_F4_V1.4.0/Middlewares/Third_Party/FatFs/src/diskio.c **** /* Includes ------------------------------------------------------------------*/
  39:../STM32Cube_FW_F4_V1.4.0/Middlewares/Third_Party/FatFs/src/diskio.c **** #include "diskio.h"
  40:../STM32Cube_FW_F4_V1.4.0/Middlewares/Third_Party/FatFs/src/diskio.c **** #include "ff_gen_drv.h"
  41:../STM32Cube_FW_F4_V1.4.0/Middlewares/Third_Party/FatFs/src/diskio.c **** 
  42:../STM32Cube_FW_F4_V1.4.0/Middlewares/Third_Party/FatFs/src/diskio.c **** /* Private typedef -----------------------------------------------------------*/
  43:../STM32Cube_FW_F4_V1.4.0/Middlewares/Third_Party/FatFs/src/diskio.c **** /* Private define ------------------------------------------------------------*/
  44:../STM32Cube_FW_F4_V1.4.0/Middlewares/Third_Party/FatFs/src/diskio.c **** /* Private variables ---------------------------------------------------------*/
  45:../STM32Cube_FW_F4_V1.4.0/Middlewares/Third_Party/FatFs/src/diskio.c **** extern Disk_drvTypeDef  disk;
  46:../STM32Cube_FW_F4_V1.4.0/Middlewares/Third_Party/FatFs/src/diskio.c **** 
  47:../STM32Cube_FW_F4_V1.4.0/Middlewares/Third_Party/FatFs/src/diskio.c **** /* Private function prototypes -----------------------------------------------*/
  48:../STM32Cube_FW_F4_V1.4.0/Middlewares/Third_Party/FatFs/src/diskio.c **** /* Private functions ---------------------------------------------------------*/
  49:../STM32Cube_FW_F4_V1.4.0/Middlewares/Third_Party/FatFs/src/diskio.c **** 
  50:../STM32Cube_FW_F4_V1.4.0/Middlewares/Third_Party/FatFs/src/diskio.c **** /**
  51:../STM32Cube_FW_F4_V1.4.0/Middlewares/Third_Party/FatFs/src/diskio.c ****   * @brief  Initializes a Drive
  52:../STM32Cube_FW_F4_V1.4.0/Middlewares/Third_Party/FatFs/src/diskio.c ****   * @param  pdrv: Physical drive number (0..)
  53:../STM32Cube_FW_F4_V1.4.0/Middlewares/Third_Party/FatFs/src/diskio.c ****   * @retval DSTATUS: Operation status
  54:../STM32Cube_FW_F4_V1.4.0/Middlewares/Third_Party/FatFs/src/diskio.c ****   */
  55:../STM32Cube_FW_F4_V1.4.0/Middlewares/Third_Party/FatFs/src/diskio.c **** DSTATUS disk_initialize(BYTE pdrv)
  56:../STM32Cube_FW_F4_V1.4.0/Middlewares/Third_Party/FatFs/src/diskio.c **** {
  88              		.loc 1 56 0
  89              		.cfi_startproc
  90              		@ args = 0, pretend = 0, frame = 0
  91              		@ frame_needed = 0, uses_anonymous_args = 0
  92              		@ link register save eliminated.
  93              	.LVL0:
  57:../STM32Cube_FW_F4_V1.4.0/Middlewares/Third_Party/FatFs/src/diskio.c ****   DSTATUS stat = RES_OK;
  58:../STM32Cube_FW_F4_V1.4.0/Middlewares/Third_Party/FatFs/src/diskio.c ****   
  59:../STM32Cube_FW_F4_V1.4.0/Middlewares/Third_Party/FatFs/src/diskio.c ****   if(disk.is_initialized[pdrv] == 0)
  94              		.loc 1 59 0
  95 0000 054B     		ldr	r3, .L4	@ tmp117,
  96 0002 1A5C     		ldrb	r2, [r3, r0]	@ zero_extendqisi2	@ tmp118, disk.is_initialized
  97 0004 32B9     		cbnz	r2, .L2	@ tmp118,
  60:../STM32Cube_FW_F4_V1.4.0/Middlewares/Third_Party/FatFs/src/diskio.c ****   { 
  61:../STM32Cube_FW_F4_V1.4.0/Middlewares/Third_Party/FatFs/src/diskio.c ****     disk.is_initialized[pdrv] = 1;
  98              		.loc 1 61 0
  99 0006 0122     		movs	r2, #1	@ tmp120,
 100 0008 1A54     		strb	r2, [r3, r0]	@ tmp120, disk.is_initialized
  62:../STM32Cube_FW_F4_V1.4.0/Middlewares/Third_Party/FatFs/src/diskio.c ****     stat = disk.drv[pdrv]->disk_initialize();
 101              		.loc 1 62 0
 102 000a 03EB8003 		add	r3, r3, r0, lsl #2	@, tmp124, tmp117, pdrv,
 103 000e 5B68     		ldr	r3, [r3, #4]	@ tmp123, disk.drv
 104 0010 1B68     		ldr	r3, [r3]	@ _8->disk_initialize, _8->disk_initialize
 105 0012 1847     		bx	r3	@ _8->disk_initialize
 106              	.LVL1:
 107              	.L2:
  63:../STM32Cube_FW_F4_V1.4.0/Middlewares/Third_Party/FatFs/src/diskio.c ****   }
  64:../STM32Cube_FW_F4_V1.4.0/Middlewares/Third_Party/FatFs/src/diskio.c ****   return stat;
ARM GAS  C:\cygwin\tmp\cceEWcVb.s 			page 4


  65:../STM32Cube_FW_F4_V1.4.0/Middlewares/Third_Party/FatFs/src/diskio.c **** }
 108              		.loc 1 65 0
 109 0014 0020     		movs	r0, #0	@,
 110              	.LVL2:
 111 0016 7047     		bx	lr	@
 112              	.L5:
 113              		.align	2
 114              	.L4:
 115 0018 00000000 		.word	disk
 116              		.cfi_endproc
 117              	.LFE123:
 118              		.size	disk_initialize, .-disk_initialize
 119              		.section	.text.disk_status,"ax",%progbits
 120              		.align	1
 121              		.global	disk_status
 122              		.thumb
 123              		.thumb_func
 124              		.type	disk_status, %function
 125              	disk_status:
 126              	.LFB124:
  66:../STM32Cube_FW_F4_V1.4.0/Middlewares/Third_Party/FatFs/src/diskio.c **** 
  67:../STM32Cube_FW_F4_V1.4.0/Middlewares/Third_Party/FatFs/src/diskio.c **** /**
  68:../STM32Cube_FW_F4_V1.4.0/Middlewares/Third_Party/FatFs/src/diskio.c ****   * @brief  Gets Disk Status 
  69:../STM32Cube_FW_F4_V1.4.0/Middlewares/Third_Party/FatFs/src/diskio.c ****   * @param  pdrv: Physical drive number (0..)
  70:../STM32Cube_FW_F4_V1.4.0/Middlewares/Third_Party/FatFs/src/diskio.c ****   * @retval DSTATUS: Operation status
  71:../STM32Cube_FW_F4_V1.4.0/Middlewares/Third_Party/FatFs/src/diskio.c ****   */
  72:../STM32Cube_FW_F4_V1.4.0/Middlewares/Third_Party/FatFs/src/diskio.c **** DSTATUS disk_status(BYTE pdrv)
  73:../STM32Cube_FW_F4_V1.4.0/Middlewares/Third_Party/FatFs/src/diskio.c **** {
 127              		.loc 1 73 0
 128              		.cfi_startproc
 129              		@ args = 0, pretend = 0, frame = 0
 130              		@ frame_needed = 0, uses_anonymous_args = 0
 131              		@ link register save eliminated.
 132              	.LVL3:
  74:../STM32Cube_FW_F4_V1.4.0/Middlewares/Third_Party/FatFs/src/diskio.c ****   DSTATUS stat;
  75:../STM32Cube_FW_F4_V1.4.0/Middlewares/Third_Party/FatFs/src/diskio.c ****   
  76:../STM32Cube_FW_F4_V1.4.0/Middlewares/Third_Party/FatFs/src/diskio.c ****   stat = disk.drv[pdrv]->disk_status();
 133              		.loc 1 76 0
 134 0000 024B     		ldr	r3, .L7	@ tmp116,
 135 0002 03EB8000 		add	r0, r3, r0, lsl #2	@, tmp118, tmp116, pdrv,
 136              	.LVL4:
 137 0006 4368     		ldr	r3, [r0, #4]	@ tmp117, disk.drv
 138 0008 5B68     		ldr	r3, [r3, #4]	@ _4->disk_status, _4->disk_status
 139 000a 1847     		bx	r3	@ _4->disk_status
 140              	.LVL5:
 141              	.L8:
 142              		.align	2
 143              	.L7:
 144 000c 00000000 		.word	disk
 145              		.cfi_endproc
 146              	.LFE124:
 147              		.size	disk_status, .-disk_status
 148              		.section	.text.disk_read,"ax",%progbits
 149              		.align	1
 150              		.global	disk_read
 151              		.thumb
 152              		.thumb_func
ARM GAS  C:\cygwin\tmp\cceEWcVb.s 			page 5


 153              		.type	disk_read, %function
 154              	disk_read:
 155              	.LFB125:
  77:../STM32Cube_FW_F4_V1.4.0/Middlewares/Third_Party/FatFs/src/diskio.c ****   return stat;
  78:../STM32Cube_FW_F4_V1.4.0/Middlewares/Third_Party/FatFs/src/diskio.c **** }
  79:../STM32Cube_FW_F4_V1.4.0/Middlewares/Third_Party/FatFs/src/diskio.c **** 
  80:../STM32Cube_FW_F4_V1.4.0/Middlewares/Third_Party/FatFs/src/diskio.c **** /**
  81:../STM32Cube_FW_F4_V1.4.0/Middlewares/Third_Party/FatFs/src/diskio.c ****   * @brief  Reads Sector(s) 
  82:../STM32Cube_FW_F4_V1.4.0/Middlewares/Third_Party/FatFs/src/diskio.c ****   * @param  pdrv: Physical drive number (0..)
  83:../STM32Cube_FW_F4_V1.4.0/Middlewares/Third_Party/FatFs/src/diskio.c ****   * @param  *buff: Data buffer to store read data
  84:../STM32Cube_FW_F4_V1.4.0/Middlewares/Third_Party/FatFs/src/diskio.c ****   * @param  sector: Sector address (LBA)
  85:../STM32Cube_FW_F4_V1.4.0/Middlewares/Third_Party/FatFs/src/diskio.c ****   * @param  count: Number of sectors to read (1..128)
  86:../STM32Cube_FW_F4_V1.4.0/Middlewares/Third_Party/FatFs/src/diskio.c ****   * @retval DRESULT: Operation result
  87:../STM32Cube_FW_F4_V1.4.0/Middlewares/Third_Party/FatFs/src/diskio.c ****   */
  88:../STM32Cube_FW_F4_V1.4.0/Middlewares/Third_Party/FatFs/src/diskio.c **** DRESULT disk_read(BYTE pdrv, BYTE *buff, DWORD sector, UINT count)
  89:../STM32Cube_FW_F4_V1.4.0/Middlewares/Third_Party/FatFs/src/diskio.c **** {
 156              		.loc 1 89 0
 157              		.cfi_startproc
 158              		@ args = 0, pretend = 0, frame = 0
 159              		@ frame_needed = 0, uses_anonymous_args = 0
 160              	.LVL6:
 161 0000 10B5     		push	{r4, lr}	@
 162              		.cfi_def_cfa_offset 8
 163              		.cfi_offset 4, -8
 164              		.cfi_offset 14, -4
  90:../STM32Cube_FW_F4_V1.4.0/Middlewares/Third_Party/FatFs/src/diskio.c ****   DRESULT res;
  91:../STM32Cube_FW_F4_V1.4.0/Middlewares/Third_Party/FatFs/src/diskio.c ****  
  92:../STM32Cube_FW_F4_V1.4.0/Middlewares/Third_Party/FatFs/src/diskio.c ****   res = disk.drv[pdrv]->disk_read(buff, sector, count);
 165              		.loc 1 92 0
 166 0002 064C     		ldr	r4, .L10	@ tmp119,
 167 0004 04EB8000 		add	r0, r4, r0, lsl #2	@, tmp121, tmp119, pdrv,
 168              	.LVL7:
 169 0008 4068     		ldr	r0, [r0, #4]	@ tmp120, disk.drv
 170 000a 8468     		ldr	r4, [r0, #8]	@ _4->disk_read, _4->disk_read
 171 000c 0846     		mov	r0, r1	@, buff
 172 000e 1146     		mov	r1, r2	@, sector
 173              	.LVL8:
 174 0010 1A46     		mov	r2, r3	@, count
 175              	.LVL9:
 176 0012 2346     		mov	r3, r4	@ _4->disk_read, _4->disk_read
 177              	.LVL10:
  93:../STM32Cube_FW_F4_V1.4.0/Middlewares/Third_Party/FatFs/src/diskio.c ****   return res;
  94:../STM32Cube_FW_F4_V1.4.0/Middlewares/Third_Party/FatFs/src/diskio.c **** }
 178              		.loc 1 94 0
 179 0014 BDE81040 		pop	{r4, lr}	@
 180              		.cfi_restore 14
 181              		.cfi_restore 4
 182              		.cfi_def_cfa_offset 0
  92:../STM32Cube_FW_F4_V1.4.0/Middlewares/Third_Party/FatFs/src/diskio.c ****   return res;
 183              		.loc 1 92 0
 184 0018 1847     		bx	r3	@ _4->disk_read
 185              	.LVL11:
 186              	.L11:
 187 001a 00BF     		.align	2
 188              	.L10:
 189 001c 00000000 		.word	disk
 190              		.cfi_endproc
ARM GAS  C:\cygwin\tmp\cceEWcVb.s 			page 6


 191              	.LFE125:
 192              		.size	disk_read, .-disk_read
 193              		.section	.text.disk_write,"ax",%progbits
 194              		.align	1
 195              		.global	disk_write
 196              		.thumb
 197              		.thumb_func
 198              		.type	disk_write, %function
 199              	disk_write:
 200              	.LFB126:
  95:../STM32Cube_FW_F4_V1.4.0/Middlewares/Third_Party/FatFs/src/diskio.c **** 
  96:../STM32Cube_FW_F4_V1.4.0/Middlewares/Third_Party/FatFs/src/diskio.c **** /**
  97:../STM32Cube_FW_F4_V1.4.0/Middlewares/Third_Party/FatFs/src/diskio.c ****   * @brief  Writes Sector(s)  
  98:../STM32Cube_FW_F4_V1.4.0/Middlewares/Third_Party/FatFs/src/diskio.c ****   * @param  pdrv: Physical drive number (0..)
  99:../STM32Cube_FW_F4_V1.4.0/Middlewares/Third_Party/FatFs/src/diskio.c ****   * @param  *buff: Data to be written
 100:../STM32Cube_FW_F4_V1.4.0/Middlewares/Third_Party/FatFs/src/diskio.c ****   * @param  sector: Sector address (LBA)
 101:../STM32Cube_FW_F4_V1.4.0/Middlewares/Third_Party/FatFs/src/diskio.c ****   * @param  count: Number of sectors to write (1..128)
 102:../STM32Cube_FW_F4_V1.4.0/Middlewares/Third_Party/FatFs/src/diskio.c ****   * @retval DRESULT: Operation result
 103:../STM32Cube_FW_F4_V1.4.0/Middlewares/Third_Party/FatFs/src/diskio.c ****   */
 104:../STM32Cube_FW_F4_V1.4.0/Middlewares/Third_Party/FatFs/src/diskio.c **** #if _USE_WRITE == 1
 105:../STM32Cube_FW_F4_V1.4.0/Middlewares/Third_Party/FatFs/src/diskio.c **** DRESULT disk_write(BYTE pdrv, const BYTE *buff, DWORD sector, UINT count)
 106:../STM32Cube_FW_F4_V1.4.0/Middlewares/Third_Party/FatFs/src/diskio.c **** {
 201              		.loc 1 106 0
 202              		.cfi_startproc
 203              		@ args = 0, pretend = 0, frame = 0
 204              		@ frame_needed = 0, uses_anonymous_args = 0
 205              	.LVL12:
 206 0000 10B5     		push	{r4, lr}	@
 207              		.cfi_def_cfa_offset 8
 208              		.cfi_offset 4, -8
 209              		.cfi_offset 14, -4
 107:../STM32Cube_FW_F4_V1.4.0/Middlewares/Third_Party/FatFs/src/diskio.c ****   DRESULT res;
 108:../STM32Cube_FW_F4_V1.4.0/Middlewares/Third_Party/FatFs/src/diskio.c ****   
 109:../STM32Cube_FW_F4_V1.4.0/Middlewares/Third_Party/FatFs/src/diskio.c ****   res = disk.drv[pdrv]->disk_write(buff, sector, count);
 210              		.loc 1 109 0
 211 0002 064C     		ldr	r4, .L13	@ tmp119,
 212 0004 04EB8000 		add	r0, r4, r0, lsl #2	@, tmp121, tmp119, pdrv,
 213              	.LVL13:
 214 0008 4068     		ldr	r0, [r0, #4]	@ tmp120, disk.drv
 215 000a C468     		ldr	r4, [r0, #12]	@ _4->disk_write, _4->disk_write
 216 000c 0846     		mov	r0, r1	@, buff
 217 000e 1146     		mov	r1, r2	@, sector
 218              	.LVL14:
 219 0010 1A46     		mov	r2, r3	@, count
 220              	.LVL15:
 221 0012 2346     		mov	r3, r4	@ _4->disk_write, _4->disk_write
 222              	.LVL16:
 110:../STM32Cube_FW_F4_V1.4.0/Middlewares/Third_Party/FatFs/src/diskio.c ****   return res;
 111:../STM32Cube_FW_F4_V1.4.0/Middlewares/Third_Party/FatFs/src/diskio.c **** }
 223              		.loc 1 111 0
 224 0014 BDE81040 		pop	{r4, lr}	@
 225              		.cfi_restore 14
 226              		.cfi_restore 4
 227              		.cfi_def_cfa_offset 0
 109:../STM32Cube_FW_F4_V1.4.0/Middlewares/Third_Party/FatFs/src/diskio.c ****   return res;
 228              		.loc 1 109 0
 229 0018 1847     		bx	r3	@ _4->disk_write
ARM GAS  C:\cygwin\tmp\cceEWcVb.s 			page 7


 230              	.LVL17:
 231              	.L14:
 232 001a 00BF     		.align	2
 233              	.L13:
 234 001c 00000000 		.word	disk
 235              		.cfi_endproc
 236              	.LFE126:
 237              		.size	disk_write, .-disk_write
 238              		.section	.text.disk_ioctl,"ax",%progbits
 239              		.align	1
 240              		.global	disk_ioctl
 241              		.thumb
 242              		.thumb_func
 243              		.type	disk_ioctl, %function
 244              	disk_ioctl:
 245              	.LFB127:
 112:../STM32Cube_FW_F4_V1.4.0/Middlewares/Third_Party/FatFs/src/diskio.c **** #endif /* _USE_WRITE == 1 */
 113:../STM32Cube_FW_F4_V1.4.0/Middlewares/Third_Party/FatFs/src/diskio.c **** 
 114:../STM32Cube_FW_F4_V1.4.0/Middlewares/Third_Party/FatFs/src/diskio.c **** /**
 115:../STM32Cube_FW_F4_V1.4.0/Middlewares/Third_Party/FatFs/src/diskio.c ****   * @brief  I/O control operation  
 116:../STM32Cube_FW_F4_V1.4.0/Middlewares/Third_Party/FatFs/src/diskio.c ****   * @param  pdrv: Physical drive number (0..)
 117:../STM32Cube_FW_F4_V1.4.0/Middlewares/Third_Party/FatFs/src/diskio.c ****   * @param  cmd: Control code
 118:../STM32Cube_FW_F4_V1.4.0/Middlewares/Third_Party/FatFs/src/diskio.c ****   * @param  *buff: Buffer to send/receive control data
 119:../STM32Cube_FW_F4_V1.4.0/Middlewares/Third_Party/FatFs/src/diskio.c ****   * @retval DRESULT: Operation result
 120:../STM32Cube_FW_F4_V1.4.0/Middlewares/Third_Party/FatFs/src/diskio.c ****   */
 121:../STM32Cube_FW_F4_V1.4.0/Middlewares/Third_Party/FatFs/src/diskio.c **** #if _USE_IOCTL == 1
 122:../STM32Cube_FW_F4_V1.4.0/Middlewares/Third_Party/FatFs/src/diskio.c **** DRESULT disk_ioctl(BYTE pdrv, BYTE cmd, void *buff)
 123:../STM32Cube_FW_F4_V1.4.0/Middlewares/Third_Party/FatFs/src/diskio.c **** {
 246              		.loc 1 123 0
 247              		.cfi_startproc
 248              		@ args = 0, pretend = 0, frame = 0
 249              		@ frame_needed = 0, uses_anonymous_args = 0
 250              		@ link register save eliminated.
 251              	.LVL18:
 124:../STM32Cube_FW_F4_V1.4.0/Middlewares/Third_Party/FatFs/src/diskio.c ****   DRESULT res;
 125:../STM32Cube_FW_F4_V1.4.0/Middlewares/Third_Party/FatFs/src/diskio.c **** 
 126:../STM32Cube_FW_F4_V1.4.0/Middlewares/Third_Party/FatFs/src/diskio.c ****   res = disk.drv[pdrv]->disk_ioctl(cmd, buff);
 252              		.loc 1 126 0
 253 0000 034B     		ldr	r3, .L16	@ tmp118,
 254 0002 03EB8000 		add	r0, r3, r0, lsl #2	@, tmp120, tmp118, pdrv,
 255              	.LVL19:
 256 0006 4368     		ldr	r3, [r0, #4]	@ tmp119, disk.drv
 257 0008 0846     		mov	r0, r1	@, cmd
 258 000a 1B69     		ldr	r3, [r3, #16]	@ _4->disk_ioctl, _4->disk_ioctl
 259 000c 1146     		mov	r1, r2	@, buff
 260              	.LVL20:
 261 000e 1847     		bx	r3	@ _4->disk_ioctl
 262              	.LVL21:
 263              	.L17:
 264              		.align	2
 265              	.L16:
 266 0010 00000000 		.word	disk
 267              		.cfi_endproc
 268              	.LFE127:
 269              		.size	disk_ioctl, .-disk_ioctl
 270              		.section	.text.get_fattime,"ax",%progbits
 271              		.align	1
ARM GAS  C:\cygwin\tmp\cceEWcVb.s 			page 8


 272              		.global	get_fattime
 273              		.thumb
 274              		.thumb_func
 275              		.type	get_fattime, %function
 276              	get_fattime:
 277              	.LFB128:
 127:../STM32Cube_FW_F4_V1.4.0/Middlewares/Third_Party/FatFs/src/diskio.c ****   return res;
 128:../STM32Cube_FW_F4_V1.4.0/Middlewares/Third_Party/FatFs/src/diskio.c **** }
 129:../STM32Cube_FW_F4_V1.4.0/Middlewares/Third_Party/FatFs/src/diskio.c **** #endif /* _USE_IOCTL == 1 */
 130:../STM32Cube_FW_F4_V1.4.0/Middlewares/Third_Party/FatFs/src/diskio.c **** 
 131:../STM32Cube_FW_F4_V1.4.0/Middlewares/Third_Party/FatFs/src/diskio.c **** /**
 132:../STM32Cube_FW_F4_V1.4.0/Middlewares/Third_Party/FatFs/src/diskio.c ****   * @brief  Gets Time from RTC 
 133:../STM32Cube_FW_F4_V1.4.0/Middlewares/Third_Party/FatFs/src/diskio.c ****   * @param  None
 134:../STM32Cube_FW_F4_V1.4.0/Middlewares/Third_Party/FatFs/src/diskio.c ****   * @retval Time in DWORD
 135:../STM32Cube_FW_F4_V1.4.0/Middlewares/Third_Party/FatFs/src/diskio.c ****   */
 136:../STM32Cube_FW_F4_V1.4.0/Middlewares/Third_Party/FatFs/src/diskio.c **** DWORD get_fattime (void)
 137:../STM32Cube_FW_F4_V1.4.0/Middlewares/Third_Party/FatFs/src/diskio.c **** {
 278              		.loc 1 137 0
 279              		.cfi_startproc
 280              		@ args = 0, pretend = 0, frame = 0
 281              		@ frame_needed = 0, uses_anonymous_args = 0
 282              		@ link register save eliminated.
 138:../STM32Cube_FW_F4_V1.4.0/Middlewares/Third_Party/FatFs/src/diskio.c ****   return 0;
 139:../STM32Cube_FW_F4_V1.4.0/Middlewares/Third_Party/FatFs/src/diskio.c **** }
 283              		.loc 1 139 0
 284 0000 0020     		movs	r0, #0	@,
 285 0002 7047     		bx	lr	@
 286              		.cfi_endproc
 287              	.LFE128:
 288              		.size	get_fattime, .-get_fattime
 289              		.text
 290              	.Letext0:
 291              		.file 2 "../STM32Cube_FW_F4_V1.4.0/Middlewares/Third_Party/FatFs/src/integer.h"
 292              		.file 3 "../STM32Cube_FW_F4_V1.4.0/Middlewares/Third_Party/FatFs/src/diskio.h"
 293              		.file 4 "c:\\program files\\gcc-arm-none-eabi-4_9-2014\\arm-none-eabi\\include\\machine\\_default_
 294              		.file 5 "c:\\program files\\gcc-arm-none-eabi-4_9-2014\\arm-none-eabi\\include\\stdint.h"
 295              		.file 6 "../STM32Cube_FW_F4_V1.4.0/Middlewares/Third_Party/FatFs/src/ff_gen_drv.h"
 296              		.file 7 "../STM32Cube_FW_F4_V1.4.0/Drivers/CMSIS/Include/core_cm4.h"