ARM GAS  C:\cygwin\tmp\cc3dQee4.s 			page 1


   1              		.syntax unified
   2              		.cpu cortex-m4
   3              		.fpu softvfp
   4              		.eabi_attribute 20, 1	@ Tag_ABI_FP_denormal
   5              		.eabi_attribute 21, 1	@ Tag_ABI_FP_exceptions
   6              		.eabi_attribute 23, 3	@ Tag_ABI_FP_number_model
   7              		.eabi_attribute 24, 1	@ Tag_ABI_align8_needed
   8              		.eabi_attribute 25, 1	@ Tag_ABI_align8_preserved
   9              		.eabi_attribute 26, 1	@ Tag_ABI_enum_size
  10              		.eabi_attribute 30, 4	@ Tag_ABI_optimization_goals
  11              		.eabi_attribute 34, 1	@ Tag_CPU_unaligned_access
  12              		.eabi_attribute 18, 4	@ Tag_ABI_PCS_wchar_t
  13              		.file	"ff_gen_drv.c"
  14              	@ GNU C (GNU Tools for ARM Embedded Processors) version 4.9.3 20141119 (release) [ARM/embedded-4_9-
  15              	@	compiled by GNU C version 4.7.4, GMP version 4.3.2, MPFR version 2.4.2, MPC version 0.8.1
  16              	@ GGC heuristics: --param ggc-min-expand=100 --param ggc-min-heapsize=131072
  17              	@ options passed:  -I . -I Inc -I gui -I emWin -I emWin/config
  18              	@ -I freemodbus-v1.5.0/port -I freemodbus-v1.5.0/modbus/include
  19              	@ -I freemodbus-v1.5.0/modbus/ascii -I freemodbus-v1.5.0/modbus/rtu
  20              	@ -I ../STM32Cube_FW_F4_V1.4.0/Drivers/CMSIS/Include
  21              	@ -I ../STM32Cube_FW_F4_V1.4.0/Drivers/CMSIS/Device/ST/STM32F4xx/Include
  22              	@ -I ../STM32Cube_FW_F4_V1.4.0/Drivers/STM32F4xx_HAL_Driver/Inc
  23              	@ -I ../STM32Cube_FW_F4_V1.4.0/Drivers/CMSIS/Include
  24              	@ -I ../STM32Cube_FW_F4_V1.4.0/Middlewares/ST/STemWin/inc
  25              	@ -I ../STM32Cube_FW_F4_V1.4.0/Middlewares/Third_Party/FatFs/src
  26              	@ -I ../STM32Cube_FW_F4_V1.4.0/Middlewares/Third_Party/FatFs/src/drivers/sd
  27              	@ -I ./drivers/display -imultilib armv7e-m
  28              	@ -iprefix c:\program files\gcc-arm-none-eabi-4_9-2014\bin\../lib/gcc/arm-none-eabi/4.9.3/
  29              	@ -isysroot c:\program files\gcc-arm-none-eabi-4_9-2014\bin\../arm-none-eabi
  30              	@ -MD out/ff_gen_drv.d -MF out/ff_gen_drv.d -MP -MQ out/ff_gen_drv.o
  31              	@ -D__USES_INITFINI__ -D USE_HAL_DRIVER -D STM32F4XX -D HSE_VALUE=25000000
  32              	@ -D STM32F437xx -D USE_FULL_ASSERT -D __GNUC__ -D __VFP_FP__
  33              	@ -D ARM_MATH_CM4 -D LOG_INFO
  34              	@ ../STM32Cube_FW_F4_V1.4.0/Middlewares/Third_Party/FatFs/src/ff_gen_drv.c
  35              	@ -mcpu=cortex-m4 -mthumb -auxbase-strip out/ff_gen_drv.o -g -ggdb3 -Os -Os
  36              	@ -Wall -Wstrict-prototypes -Wextra -std=gnu90 -ffunction-sections
  37              	@ -fdata-sections -fverbose-asm
  38              	@ options enabled:  -faggressive-loop-optimizations -fauto-inc-dec
  39              	@ -fbranch-count-reg -fcaller-saves -fcombine-stack-adjustments -fcommon
  40              	@ -fcompare-elim -fcprop-registers -fcrossjumping -fcse-follow-jumps
  41              	@ -fdata-sections -fdefer-pop -fdelete-null-pointer-checks -fdevirtualize
  42              	@ -fdevirtualize-speculatively -fdwarf2-cfi-asm -fearly-inlining
  43              	@ -feliminate-unused-debug-types -fexpensive-optimizations
  44              	@ -fforward-propagate -ffunction-cse -ffunction-sections -fgcse -fgcse-lm
  45              	@ -fgnu-runtime -fgnu-unique -fguess-branch-probability
  46              	@ -fhoist-adjacent-loads -fident -fif-conversion -fif-conversion2
  47              	@ -findirect-inlining -finline -finline-atomics -finline-functions
  48              	@ -finline-functions-called-once -finline-small-functions -fipa-cp
  49              	@ -fipa-profile -fipa-pure-const -fipa-reference -fipa-sra
  50              	@ -fira-hoist-pressure -fira-share-save-slots -fira-share-spill-slots
  51              	@ -fisolate-erroneous-paths-dereference -fivopts -fkeep-static-consts
  52              	@ -fleading-underscore -fmath-errno -fmerge-constants -fmerge-debug-strings
  53              	@ -fomit-frame-pointer -foptimize-sibling-calls -fpartial-inlining
  54              	@ -fpeephole -fpeephole2 -fprefetch-loop-arrays -freg-struct-return
  55              	@ -freorder-blocks -freorder-functions -frerun-cse-after-loop
  56              	@ -fsched-critical-path-heuristic -fsched-dep-count-heuristic
  57              	@ -fsched-group-heuristic -fsched-interblock -fsched-last-insn-heuristic
ARM GAS  C:\cygwin\tmp\cc3dQee4.s 			page 2


  58              	@ -fsched-pressure -fsched-rank-heuristic -fsched-spec
  59              	@ -fsched-spec-insn-heuristic -fsched-stalled-insns-dep -fschedule-insns2
  60              	@ -fsection-anchors -fshow-column -fsigned-zeros -fsplit-ivs-in-unroller
  61              	@ -fsplit-wide-types -fstrict-aliasing -fstrict-overflow
  62              	@ -fstrict-volatile-bitfields -fsync-libcalls -fthread-jumps
  63              	@ -ftoplevel-reorder -ftrapping-math -ftree-bit-ccp -ftree-builtin-call-dce
  64              	@ -ftree-ccp -ftree-ch -ftree-coalesce-vars -ftree-copy-prop
  65              	@ -ftree-copyrename -ftree-cselim -ftree-dce -ftree-dominator-opts
  66              	@ -ftree-dse -ftree-forwprop -ftree-fre -ftree-loop-if-convert
  67              	@ -ftree-loop-im -ftree-loop-ivcanon -ftree-loop-optimize
  68              	@ -ftree-parallelize-loops= -ftree-phiprop -ftree-pre -ftree-pta
  69              	@ -ftree-reassoc -ftree-scev-cprop -ftree-sink -ftree-slsr -ftree-sra
  70              	@ -ftree-switch-conversion -ftree-tail-merge -ftree-ter -ftree-vrp
  71              	@ -funit-at-a-time -fvar-tracking -fvar-tracking-assignments -fverbose-asm
  72              	@ -fzero-initialized-in-bss -mlittle-endian -mlra
  73              	@ -mpic-data-is-text-relative -msched-prolog -mthumb -munaligned-access
  74              	@ -mvectorize-with-neon-quad
  75              	
  76              		.text
  77              	.Ltext0:
  78              		.cfi_sections	.debug_frame
  79              		.section	.text.FATFS_LinkDriver,"ax",%progbits
  80              		.align	1
  81              		.global	FATFS_LinkDriver
  82              		.thumb
  83              		.thumb_func
  84              		.type	FATFS_LinkDriver, %function
  85              	FATFS_LinkDriver:
  86              	.LFB123:
  87              		.file 1 "../STM32Cube_FW_F4_V1.4.0/Middlewares/Third_Party/FatFs/src/ff_gen_drv.c"
   1:../STM32Cube_FW_F4_V1.4.0/Middlewares/Third_Party/FatFs/src/ff_gen_drv.c **** /**
   2:../STM32Cube_FW_F4_V1.4.0/Middlewares/Third_Party/FatFs/src/ff_gen_drv.c ****   ******************************************************************************
   3:../STM32Cube_FW_F4_V1.4.0/Middlewares/Third_Party/FatFs/src/ff_gen_drv.c ****   * @file    ff_gen_drv.c 
   4:../STM32Cube_FW_F4_V1.4.0/Middlewares/Third_Party/FatFs/src/ff_gen_drv.c ****   * @author  MCD Application Team
   5:../STM32Cube_FW_F4_V1.4.0/Middlewares/Third_Party/FatFs/src/ff_gen_drv.c ****   * @version V1.2.1
   6:../STM32Cube_FW_F4_V1.4.0/Middlewares/Third_Party/FatFs/src/ff_gen_drv.c ****   * @date    20-November-2014
   7:../STM32Cube_FW_F4_V1.4.0/Middlewares/Third_Party/FatFs/src/ff_gen_drv.c ****   * @brief   FatFs generic low level driver.
   8:../STM32Cube_FW_F4_V1.4.0/Middlewares/Third_Party/FatFs/src/ff_gen_drv.c ****   ******************************************************************************
   9:../STM32Cube_FW_F4_V1.4.0/Middlewares/Third_Party/FatFs/src/ff_gen_drv.c ****   * @attention
  10:../STM32Cube_FW_F4_V1.4.0/Middlewares/Third_Party/FatFs/src/ff_gen_drv.c ****   *
  11:../STM32Cube_FW_F4_V1.4.0/Middlewares/Third_Party/FatFs/src/ff_gen_drv.c ****   * <h2><center>&copy; COPYRIGHT 2014 STMicroelectronics</center></h2>
  12:../STM32Cube_FW_F4_V1.4.0/Middlewares/Third_Party/FatFs/src/ff_gen_drv.c ****   *
  13:../STM32Cube_FW_F4_V1.4.0/Middlewares/Third_Party/FatFs/src/ff_gen_drv.c ****   * Licensed under MCD-ST Liberty SW License Agreement V2, (the "License");
  14:../STM32Cube_FW_F4_V1.4.0/Middlewares/Third_Party/FatFs/src/ff_gen_drv.c ****   * You may not use this file except in compliance with the License.
  15:../STM32Cube_FW_F4_V1.4.0/Middlewares/Third_Party/FatFs/src/ff_gen_drv.c ****   * You may obtain a copy of the License at:
  16:../STM32Cube_FW_F4_V1.4.0/Middlewares/Third_Party/FatFs/src/ff_gen_drv.c ****   *
  17:../STM32Cube_FW_F4_V1.4.0/Middlewares/Third_Party/FatFs/src/ff_gen_drv.c ****   *        http://www.st.com/software_license_agreement_liberty_v2
  18:../STM32Cube_FW_F4_V1.4.0/Middlewares/Third_Party/FatFs/src/ff_gen_drv.c ****   *
  19:../STM32Cube_FW_F4_V1.4.0/Middlewares/Third_Party/FatFs/src/ff_gen_drv.c ****   * Unless required by applicable law or agreed to in writing, software 
  20:../STM32Cube_FW_F4_V1.4.0/Middlewares/Third_Party/FatFs/src/ff_gen_drv.c ****   * distributed under the License is distributed on an "AS IS" BASIS, 
  21:../STM32Cube_FW_F4_V1.4.0/Middlewares/Third_Party/FatFs/src/ff_gen_drv.c ****   * WITHOUT WARRANTIES OR CONDITIONS OF ANY KIND, either express or implied.
  22:../STM32Cube_FW_F4_V1.4.0/Middlewares/Third_Party/FatFs/src/ff_gen_drv.c ****   * See the License for the specific language governing permissions and
  23:../STM32Cube_FW_F4_V1.4.0/Middlewares/Third_Party/FatFs/src/ff_gen_drv.c ****   * limitations under the License.
  24:../STM32Cube_FW_F4_V1.4.0/Middlewares/Third_Party/FatFs/src/ff_gen_drv.c ****   *
  25:../STM32Cube_FW_F4_V1.4.0/Middlewares/Third_Party/FatFs/src/ff_gen_drv.c ****   ******************************************************************************
  26:../STM32Cube_FW_F4_V1.4.0/Middlewares/Third_Party/FatFs/src/ff_gen_drv.c ****   */ 
  27:../STM32Cube_FW_F4_V1.4.0/Middlewares/Third_Party/FatFs/src/ff_gen_drv.c **** 
ARM GAS  C:\cygwin\tmp\cc3dQee4.s 			page 3


  28:../STM32Cube_FW_F4_V1.4.0/Middlewares/Third_Party/FatFs/src/ff_gen_drv.c **** /* Includes ------------------------------------------------------------------*/
  29:../STM32Cube_FW_F4_V1.4.0/Middlewares/Third_Party/FatFs/src/ff_gen_drv.c **** #include "ff_gen_drv.h"
  30:../STM32Cube_FW_F4_V1.4.0/Middlewares/Third_Party/FatFs/src/ff_gen_drv.c **** 
  31:../STM32Cube_FW_F4_V1.4.0/Middlewares/Third_Party/FatFs/src/ff_gen_drv.c **** /* Private typedef -----------------------------------------------------------*/
  32:../STM32Cube_FW_F4_V1.4.0/Middlewares/Third_Party/FatFs/src/ff_gen_drv.c **** /* Private define ------------------------------------------------------------*/
  33:../STM32Cube_FW_F4_V1.4.0/Middlewares/Third_Party/FatFs/src/ff_gen_drv.c **** /* Private variables ---------------------------------------------------------*/
  34:../STM32Cube_FW_F4_V1.4.0/Middlewares/Third_Party/FatFs/src/ff_gen_drv.c **** Disk_drvTypeDef disk = {{0},{0},0};
  35:../STM32Cube_FW_F4_V1.4.0/Middlewares/Third_Party/FatFs/src/ff_gen_drv.c **** 
  36:../STM32Cube_FW_F4_V1.4.0/Middlewares/Third_Party/FatFs/src/ff_gen_drv.c **** /* Private function prototypes -----------------------------------------------*/
  37:../STM32Cube_FW_F4_V1.4.0/Middlewares/Third_Party/FatFs/src/ff_gen_drv.c **** /* Private functions ---------------------------------------------------------*/
  38:../STM32Cube_FW_F4_V1.4.0/Middlewares/Third_Party/FatFs/src/ff_gen_drv.c **** 
  39:../STM32Cube_FW_F4_V1.4.0/Middlewares/Third_Party/FatFs/src/ff_gen_drv.c **** /**
  40:../STM32Cube_FW_F4_V1.4.0/Middlewares/Third_Party/FatFs/src/ff_gen_drv.c ****   * @brief  Links a compatible diskio driver and increments the number of active
  41:../STM32Cube_FW_F4_V1.4.0/Middlewares/Third_Party/FatFs/src/ff_gen_drv.c ****   *         linked drivers.          
  42:../STM32Cube_FW_F4_V1.4.0/Middlewares/Third_Party/FatFs/src/ff_gen_drv.c ****   * @note   The number of linked drivers (volumes) is up to 10 due to FatFs limits
  43:../STM32Cube_FW_F4_V1.4.0/Middlewares/Third_Party/FatFs/src/ff_gen_drv.c ****   * @param  drv: pointer to the disk IO Driver structure
  44:../STM32Cube_FW_F4_V1.4.0/Middlewares/Third_Party/FatFs/src/ff_gen_drv.c ****   * @param  path: pointer to the logical drive path 
  45:../STM32Cube_FW_F4_V1.4.0/Middlewares/Third_Party/FatFs/src/ff_gen_drv.c ****   * @retval Returns 0 in case of success, otherwise 1.
  46:../STM32Cube_FW_F4_V1.4.0/Middlewares/Third_Party/FatFs/src/ff_gen_drv.c ****   */
  47:../STM32Cube_FW_F4_V1.4.0/Middlewares/Third_Party/FatFs/src/ff_gen_drv.c **** uint8_t FATFS_LinkDriver(Diskio_drvTypeDef *drv, char *path)
  48:../STM32Cube_FW_F4_V1.4.0/Middlewares/Third_Party/FatFs/src/ff_gen_drv.c **** {
  88              		.loc 1 48 0
  89              		.cfi_startproc
  90              		@ args = 0, pretend = 0, frame = 0
  91              		@ frame_needed = 0, uses_anonymous_args = 0
  92              	.LVL0:
  93 0000 10B5     		push	{r4, lr}	@
  94              		.cfi_def_cfa_offset 8
  95              		.cfi_offset 4, -8
  96              		.cfi_offset 14, -4
  49:../STM32Cube_FW_F4_V1.4.0/Middlewares/Third_Party/FatFs/src/ff_gen_drv.c ****   uint8_t ret = 1;
  50:../STM32Cube_FW_F4_V1.4.0/Middlewares/Third_Party/FatFs/src/ff_gen_drv.c ****   uint8_t DiskNum = 0;
  51:../STM32Cube_FW_F4_V1.4.0/Middlewares/Third_Party/FatFs/src/ff_gen_drv.c ****   
  52:../STM32Cube_FW_F4_V1.4.0/Middlewares/Third_Party/FatFs/src/ff_gen_drv.c ****   if(disk.nbr <= _VOLUMES)
  97              		.loc 1 52 0
  98 0002 0E4B     		ldr	r3, .L5	@ tmp122,
  99 0004 1A7A     		ldrb	r2, [r3, #8]	@ zero_extendqisi2	@ disk.nbr, disk.nbr
 100 0006 012A     		cmp	r2, #1	@ disk.nbr,
 101 0008 15D8     		bhi	.L3	@,
  53:../STM32Cube_FW_F4_V1.4.0/Middlewares/Third_Party/FatFs/src/ff_gen_drv.c ****   {
  54:../STM32Cube_FW_F4_V1.4.0/Middlewares/Third_Party/FatFs/src/ff_gen_drv.c ****     disk.is_initialized[disk.nbr] = 0;
 102              		.loc 1 54 0
 103 000a 1C7A     		ldrb	r4, [r3, #8]	@ zero_extendqisi2	@ disk.nbr, disk.nbr
 104 000c E4B2     		uxtb	r4, r4	@ D.8480, disk.nbr
 105 000e 0022     		movs	r2, #0	@ tmp131,
 106 0010 1A55     		strb	r2, [r3, r4]	@ tmp131, disk.is_initialized
  55:../STM32Cube_FW_F4_V1.4.0/Middlewares/Third_Party/FatFs/src/ff_gen_drv.c ****     disk.drv[disk.nbr] = drv;  
 107              		.loc 1 55 0
 108 0012 1C7A     		ldrb	r4, [r3, #8]	@ zero_extendqisi2	@ disk.nbr, disk.nbr
 109 0014 03EB8404 		add	r4, r3, r4, lsl #2	@, tmp138, tmp122, disk.nbr,
 110 0018 6060     		str	r0, [r4, #4]	@ drv, disk.drv
  56:../STM32Cube_FW_F4_V1.4.0/Middlewares/Third_Party/FatFs/src/ff_gen_drv.c ****     DiskNum = disk.nbr++;
 111              		.loc 1 56 0
 112 001a 187A     		ldrb	r0, [r3, #8]	@ zero_extendqisi2	@ disk.nbr, disk.nbr
 113              	.LVL1:
 114 001c C0B2     		uxtb	r0, r0	@ D.8480, disk.nbr
 115 001e 441C     		adds	r4, r0, #1	@ tmp144, D.8480,
ARM GAS  C:\cygwin\tmp\cc3dQee4.s 			page 4


 116              	.LVL2:
 117 0020 E4B2     		uxtb	r4, r4	@ D.8480, tmp144
 118 0022 1C72     		strb	r4, [r3, #8]	@ D.8480, disk.nbr
 119              	.LVL3:
  57:../STM32Cube_FW_F4_V1.4.0/Middlewares/Third_Party/FatFs/src/ff_gen_drv.c ****     path[0] = DiskNum + '0';
  58:../STM32Cube_FW_F4_V1.4.0/Middlewares/Third_Party/FatFs/src/ff_gen_drv.c ****     path[1] = ':';
 120              		.loc 1 58 0
 121 0024 3A23     		movs	r3, #58	@ tmp149,
 122              	.LVL4:
  57:../STM32Cube_FW_F4_V1.4.0/Middlewares/Third_Party/FatFs/src/ff_gen_drv.c ****     path[0] = DiskNum + '0';
 123              		.loc 1 57 0
 124 0026 3030     		adds	r0, r0, #48	@ tmp147, D.8480,
 125              	.LVL5:
 126              		.loc 1 58 0
 127 0028 4B70     		strb	r3, [r1, #1]	@ tmp149, MEM[(char *)path_16(D) + 1B]
 128              	.LVL6:
  59:../STM32Cube_FW_F4_V1.4.0/Middlewares/Third_Party/FatFs/src/ff_gen_drv.c ****     path[2] = '/';
 129              		.loc 1 59 0
 130 002a 2F23     		movs	r3, #47	@ tmp151,
  57:../STM32Cube_FW_F4_V1.4.0/Middlewares/Third_Party/FatFs/src/ff_gen_drv.c ****     path[0] = DiskNum + '0';
 131              		.loc 1 57 0
 132 002c 0870     		strb	r0, [r1]	@ tmp147, *path_16(D)
 133              		.loc 1 59 0
 134 002e 8B70     		strb	r3, [r1, #2]	@ tmp151, MEM[(char *)path_16(D) + 2B]
  60:../STM32Cube_FW_F4_V1.4.0/Middlewares/Third_Party/FatFs/src/ff_gen_drv.c ****     path[3] = 0;
 135              		.loc 1 60 0
 136 0030 CA70     		strb	r2, [r1, #3]	@ tmp131, MEM[(char *)path_16(D) + 3B]
 137              	.LVL7:
  61:../STM32Cube_FW_F4_V1.4.0/Middlewares/Third_Party/FatFs/src/ff_gen_drv.c ****     ret = 0;
 138              		.loc 1 61 0
 139 0032 1046     		mov	r0, r2	@ ret, tmp131
 140              	.LVL8:
 141 0034 10BD     		pop	{r4, pc}	@
 142              	.LVL9:
 143              	.L3:
  49:../STM32Cube_FW_F4_V1.4.0/Middlewares/Third_Party/FatFs/src/ff_gen_drv.c ****   uint8_t DiskNum = 0;
 144              		.loc 1 49 0
 145 0036 0120     		movs	r0, #1	@ ret,
 146              	.LVL10:
  62:../STM32Cube_FW_F4_V1.4.0/Middlewares/Third_Party/FatFs/src/ff_gen_drv.c ****   }
  63:../STM32Cube_FW_F4_V1.4.0/Middlewares/Third_Party/FatFs/src/ff_gen_drv.c ****   
  64:../STM32Cube_FW_F4_V1.4.0/Middlewares/Third_Party/FatFs/src/ff_gen_drv.c ****   return ret;
  65:../STM32Cube_FW_F4_V1.4.0/Middlewares/Third_Party/FatFs/src/ff_gen_drv.c **** }
 147              		.loc 1 65 0
 148 0038 10BD     		pop	{r4, pc}	@
 149              	.L6:
 150 003a 00BF     		.align	2
 151              	.L5:
 152 003c 00000000 		.word	.LANCHOR0
 153              		.cfi_endproc
 154              	.LFE123:
 155              		.size	FATFS_LinkDriver, .-FATFS_LinkDriver
 156              		.section	.text.FATFS_UnLinkDriver,"ax",%progbits
 157              		.align	1
 158              		.global	FATFS_UnLinkDriver
 159              		.thumb
 160              		.thumb_func
ARM GAS  C:\cygwin\tmp\cc3dQee4.s 			page 5


 161              		.type	FATFS_UnLinkDriver, %function
 162              	FATFS_UnLinkDriver:
 163              	.LFB124:
  66:../STM32Cube_FW_F4_V1.4.0/Middlewares/Third_Party/FatFs/src/ff_gen_drv.c **** 
  67:../STM32Cube_FW_F4_V1.4.0/Middlewares/Third_Party/FatFs/src/ff_gen_drv.c **** /**
  68:../STM32Cube_FW_F4_V1.4.0/Middlewares/Third_Party/FatFs/src/ff_gen_drv.c ****   * @brief  Unlinks a diskio driver and decrements the number of active linked
  69:../STM32Cube_FW_F4_V1.4.0/Middlewares/Third_Party/FatFs/src/ff_gen_drv.c ****   *         drivers.
  70:../STM32Cube_FW_F4_V1.4.0/Middlewares/Third_Party/FatFs/src/ff_gen_drv.c ****   * @param  path: pointer to the logical drive path  
  71:../STM32Cube_FW_F4_V1.4.0/Middlewares/Third_Party/FatFs/src/ff_gen_drv.c ****   * @retval Returns 0 in case of success, otherwise 1.
  72:../STM32Cube_FW_F4_V1.4.0/Middlewares/Third_Party/FatFs/src/ff_gen_drv.c ****   */
  73:../STM32Cube_FW_F4_V1.4.0/Middlewares/Third_Party/FatFs/src/ff_gen_drv.c **** uint8_t FATFS_UnLinkDriver(char *path)
  74:../STM32Cube_FW_F4_V1.4.0/Middlewares/Third_Party/FatFs/src/ff_gen_drv.c **** { 
 164              		.loc 1 74 0
 165              		.cfi_startproc
 166              		@ args = 0, pretend = 0, frame = 0
 167              		@ frame_needed = 0, uses_anonymous_args = 0
 168              		@ link register save eliminated.
 169              	.LVL11:
  75:../STM32Cube_FW_F4_V1.4.0/Middlewares/Third_Party/FatFs/src/ff_gen_drv.c ****   uint8_t DiskNum = 0;
  76:../STM32Cube_FW_F4_V1.4.0/Middlewares/Third_Party/FatFs/src/ff_gen_drv.c ****   uint8_t ret = 1;
  77:../STM32Cube_FW_F4_V1.4.0/Middlewares/Third_Party/FatFs/src/ff_gen_drv.c ****   
  78:../STM32Cube_FW_F4_V1.4.0/Middlewares/Third_Party/FatFs/src/ff_gen_drv.c ****   if(disk.nbr >= 1)
 170              		.loc 1 78 0
 171 0000 0A4B     		ldr	r3, .L11	@ tmp120,
 172 0002 1A7A     		ldrb	r2, [r3, #8]	@ zero_extendqisi2	@ disk.nbr, disk.nbr
 173 0004 7AB1     		cbz	r2, .L10	@ disk.nbr,
 174              	.LVL12:
  79:../STM32Cube_FW_F4_V1.4.0/Middlewares/Third_Party/FatFs/src/ff_gen_drv.c ****   {    
  80:../STM32Cube_FW_F4_V1.4.0/Middlewares/Third_Party/FatFs/src/ff_gen_drv.c ****     DiskNum = path[0] - '0';
 175              		.loc 1 80 0
 176 0006 0278     		ldrb	r2, [r0]	@ zero_extendqisi2	@ *path_5(D), *path_5(D)
  81:../STM32Cube_FW_F4_V1.4.0/Middlewares/Third_Party/FatFs/src/ff_gen_drv.c ****     if(DiskNum <= disk.nbr)
 177              		.loc 1 81 0
 178 0008 197A     		ldrb	r1, [r3, #8]	@ zero_extendqisi2	@ disk.nbr, disk.nbr
  80:../STM32Cube_FW_F4_V1.4.0/Middlewares/Third_Party/FatFs/src/ff_gen_drv.c ****     if(DiskNum <= disk.nbr)
 179              		.loc 1 80 0
 180 000a 303A     		subs	r2, r2, #48	@ tmp130, *path_5(D),
 181              		.loc 1 81 0
 182 000c D2B2     		uxtb	r2, r2	@ tmp131, tmp130
 183 000e 8A42     		cmp	r2, r1	@ tmp131, disk.nbr
 184 0010 09D8     		bhi	.L10	@,
  82:../STM32Cube_FW_F4_V1.4.0/Middlewares/Third_Party/FatFs/src/ff_gen_drv.c ****     {
  83:../STM32Cube_FW_F4_V1.4.0/Middlewares/Third_Party/FatFs/src/ff_gen_drv.c ****       disk.drv[disk.nbr--] = 0;
 185              		.loc 1 83 0
 186 0012 1A7A     		ldrb	r2, [r3, #8]	@ zero_extendqisi2	@ disk.nbr, disk.nbr
 187 0014 D2B2     		uxtb	r2, r2	@ D.8485, disk.nbr
 188 0016 511E     		subs	r1, r2, #1	@ tmp136, D.8485,
 189 0018 C9B2     		uxtb	r1, r1	@ D.8485, tmp136
 190 001a 1972     		strb	r1, [r3, #8]	@ D.8485, disk.nbr
 191              	.LVL13:
 192 001c 03EB8203 		add	r3, r3, r2, lsl #2	@, tmp140, tmp120, D.8485,
 193 0020 0020     		movs	r0, #0	@ tmp142,
 194              	.LVL14:
 195 0022 5860     		str	r0, [r3, #4]	@ tmp142, disk.drv
 196              	.LVL15:
 197 0024 7047     		bx	lr	@
 198              	.LVL16:
ARM GAS  C:\cygwin\tmp\cc3dQee4.s 			page 6


 199              	.L10:
  76:../STM32Cube_FW_F4_V1.4.0/Middlewares/Third_Party/FatFs/src/ff_gen_drv.c ****   
 200              		.loc 1 76 0
 201 0026 0120     		movs	r0, #1	@ ret,
 202              	.LVL17:
  84:../STM32Cube_FW_F4_V1.4.0/Middlewares/Third_Party/FatFs/src/ff_gen_drv.c ****       ret = 0;
  85:../STM32Cube_FW_F4_V1.4.0/Middlewares/Third_Party/FatFs/src/ff_gen_drv.c ****     }
  86:../STM32Cube_FW_F4_V1.4.0/Middlewares/Third_Party/FatFs/src/ff_gen_drv.c ****   }
  87:../STM32Cube_FW_F4_V1.4.0/Middlewares/Third_Party/FatFs/src/ff_gen_drv.c ****   
  88:../STM32Cube_FW_F4_V1.4.0/Middlewares/Third_Party/FatFs/src/ff_gen_drv.c ****   return ret;
  89:../STM32Cube_FW_F4_V1.4.0/Middlewares/Third_Party/FatFs/src/ff_gen_drv.c **** }
 203              		.loc 1 89 0
 204 0028 7047     		bx	lr	@
 205              	.L12:
 206 002a 00BF     		.align	2
 207              	.L11:
 208 002c 00000000 		.word	.LANCHOR0
 209              		.cfi_endproc
 210              	.LFE124:
 211              		.size	FATFS_UnLinkDriver, .-FATFS_UnLinkDriver
 212              		.section	.text.FATFS_GetAttachedDriversNbr,"ax",%progbits
 213              		.align	1
 214              		.global	FATFS_GetAttachedDriversNbr
 215              		.thumb
 216              		.thumb_func
 217              		.type	FATFS_GetAttachedDriversNbr, %function
 218              	FATFS_GetAttachedDriversNbr:
 219              	.LFB125:
  90:../STM32Cube_FW_F4_V1.4.0/Middlewares/Third_Party/FatFs/src/ff_gen_drv.c **** 
  91:../STM32Cube_FW_F4_V1.4.0/Middlewares/Third_Party/FatFs/src/ff_gen_drv.c **** /**
  92:../STM32Cube_FW_F4_V1.4.0/Middlewares/Third_Party/FatFs/src/ff_gen_drv.c ****   * @brief  Gets number of linked drivers to the FatFs module.
  93:../STM32Cube_FW_F4_V1.4.0/Middlewares/Third_Party/FatFs/src/ff_gen_drv.c ****   * @param  None
  94:../STM32Cube_FW_F4_V1.4.0/Middlewares/Third_Party/FatFs/src/ff_gen_drv.c ****   * @retval Number of attached drivers.
  95:../STM32Cube_FW_F4_V1.4.0/Middlewares/Third_Party/FatFs/src/ff_gen_drv.c ****   */
  96:../STM32Cube_FW_F4_V1.4.0/Middlewares/Third_Party/FatFs/src/ff_gen_drv.c **** uint8_t FATFS_GetAttachedDriversNbr(void)
  97:../STM32Cube_FW_F4_V1.4.0/Middlewares/Third_Party/FatFs/src/ff_gen_drv.c **** {
 220              		.loc 1 97 0
 221              		.cfi_startproc
 222              		@ args = 0, pretend = 0, frame = 0
 223              		@ frame_needed = 0, uses_anonymous_args = 0
 224              		@ link register save eliminated.
  98:../STM32Cube_FW_F4_V1.4.0/Middlewares/Third_Party/FatFs/src/ff_gen_drv.c ****   return disk.nbr;
 225              		.loc 1 98 0
 226 0000 014B     		ldr	r3, .L14	@ tmp112,
 227 0002 187A     		ldrb	r0, [r3, #8]	@ zero_extendqisi2	@ disk.nbr, disk.nbr
  99:../STM32Cube_FW_F4_V1.4.0/Middlewares/Third_Party/FatFs/src/ff_gen_drv.c **** }
 228              		.loc 1 99 0
 229 0004 7047     		bx	lr	@
 230              	.L15:
 231 0006 00BF     		.align	2
 232              	.L14:
 233 0008 00000000 		.word	.LANCHOR0
 234              		.cfi_endproc
 235              	.LFE125:
 236              		.size	FATFS_GetAttachedDriversNbr, .-FATFS_GetAttachedDriversNbr
 237              		.global	disk
 238              		.section	.bss.disk,"aw",%nobits
ARM GAS  C:\cygwin\tmp\cc3dQee4.s 			page 7


 239              		.align	2
 240              		.set	.LANCHOR0,. + 0
 241              		.type	disk, %object
 242              		.size	disk, 12
 243              	disk:
 244 0000 00000000 		.space	12
 244      00000000 
 244      00000000 
 245              		.text
 246              	.Letext0:
 247              		.file 2 "../STM32Cube_FW_F4_V1.4.0/Middlewares/Third_Party/FatFs/src/integer.h"
 248              		.file 3 "../STM32Cube_FW_F4_V1.4.0/Middlewares/Third_Party/FatFs/src/diskio.h"
 249              		.file 4 "c:\\program files\\gcc-arm-none-eabi-4_9-2014\\arm-none-eabi\\include\\machine\\_default_
 250              		.file 5 "c:\\program files\\gcc-arm-none-eabi-4_9-2014\\arm-none-eabi\\include\\stdint.h"
 251              		.file 6 "../STM32Cube_FW_F4_V1.4.0/Middlewares/Third_Party/FatFs/src/ff_gen_drv.h"
 252              		.file 7 "../STM32Cube_FW_F4_V1.4.0/Drivers/CMSIS/Include/core_cm4.h"