ARM GAS  C:\cygwin\tmp\ccLslhqF.s 			page 1


   1              		.syntax unified
   2              		.cpu cortex-m4
   3              		.fpu softvfp
   4              		.eabi_attribute 20, 1	@ Tag_ABI_FP_denormal
   5              		.eabi_attribute 21, 1	@ Tag_ABI_FP_exceptions
   6              		.eabi_attribute 23, 3	@ Tag_ABI_FP_number_model
   7              		.eabi_attribute 24, 1	@ Tag_ABI_align8_needed
   8              		.eabi_attribute 25, 1	@ Tag_ABI_align8_preserved
   9              		.eabi_attribute 26, 1	@ Tag_ABI_enum_size
  10              		.eabi_attribute 30, 4	@ Tag_ABI_optimization_goals
  11              		.eabi_attribute 34, 1	@ Tag_CPU_unaligned_access
  12              		.eabi_attribute 18, 4	@ Tag_ABI_PCS_wchar_t
  13              		.file	"GUI_X.c"
  14              	@ GNU C (GNU Tools for ARM Embedded Processors) version 4.9.3 20141119 (release) [ARM/embedded-4_9-
  15              	@	compiled by GNU C version 4.7.4, GMP version 4.3.2, MPFR version 2.4.2, MPC version 0.8.1
  16              	@ GGC heuristics: --param ggc-min-expand=100 --param ggc-min-heapsize=131072
  17              	@ options passed:  -I . -I Inc -I gui -I emWin -I emWin/config
  18              	@ -I freemodbus-v1.5.0/port -I freemodbus-v1.5.0/modbus/include
  19              	@ -I freemodbus-v1.5.0/modbus/ascii -I freemodbus-v1.5.0/modbus/rtu
  20              	@ -I ../STM32Cube_FW_F4_V1.4.0/Drivers/CMSIS/Include
  21              	@ -I ../STM32Cube_FW_F4_V1.4.0/Drivers/CMSIS/Device/ST/STM32F4xx/Include
  22              	@ -I ../STM32Cube_FW_F4_V1.4.0/Drivers/STM32F4xx_HAL_Driver/Inc
  23              	@ -I ../STM32Cube_FW_F4_V1.4.0/Drivers/CMSIS/Include
  24              	@ -I ../STM32Cube_FW_F4_V1.4.0/Middlewares/ST/STemWin/inc
  25              	@ -I ../STM32Cube_FW_F4_V1.4.0/Middlewares/Third_Party/FatFs/src
  26              	@ -I ../STM32Cube_FW_F4_V1.4.0/Middlewares/Third_Party/FatFs/src/drivers/sd
  27              	@ -I ./drivers/display -imultilib armv7e-m
  28              	@ -iprefix c:\program files\gcc-arm-none-eabi-4_9-2014\bin\../lib/gcc/arm-none-eabi/4.9.3/
  29              	@ -isysroot c:\program files\gcc-arm-none-eabi-4_9-2014\bin\../arm-none-eabi
  30              	@ -MD out/GUI_X.d -MF out/GUI_X.d -MP -MQ out/GUI_X.o -D__USES_INITFINI__
  31              	@ -D USE_HAL_DRIVER -D STM32F4XX -D HSE_VALUE=25000000 -D STM32F437xx
  32              	@ -D USE_FULL_ASSERT -D __GNUC__ -D __VFP_FP__ -D ARM_MATH_CM4 -D LOG_INFO
  33              	@ emWin/os/GUI_X.c -mcpu=cortex-m4 -mthumb -auxbase-strip out/GUI_X.o -g
  34              	@ -ggdb3 -Os -Os -Wall -Wstrict-prototypes -Wextra -std=gnu90
  35              	@ -ffunction-sections -fdata-sections -fverbose-asm
  36              	@ options enabled:  -faggressive-loop-optimizations -fauto-inc-dec
  37              	@ -fbranch-count-reg -fcaller-saves -fcombine-stack-adjustments -fcommon
  38              	@ -fcompare-elim -fcprop-registers -fcrossjumping -fcse-follow-jumps
  39              	@ -fdata-sections -fdefer-pop -fdelete-null-pointer-checks -fdevirtualize
  40              	@ -fdevirtualize-speculatively -fdwarf2-cfi-asm -fearly-inlining
  41              	@ -feliminate-unused-debug-types -fexpensive-optimizations
  42              	@ -fforward-propagate -ffunction-cse -ffunction-sections -fgcse -fgcse-lm
  43              	@ -fgnu-runtime -fgnu-unique -fguess-branch-probability
  44              	@ -fhoist-adjacent-loads -fident -fif-conversion -fif-conversion2
  45              	@ -findirect-inlining -finline -finline-atomics -finline-functions
  46              	@ -finline-functions-called-once -finline-small-functions -fipa-cp
  47              	@ -fipa-profile -fipa-pure-const -fipa-reference -fipa-sra
  48              	@ -fira-hoist-pressure -fira-share-save-slots -fira-share-spill-slots
  49              	@ -fisolate-erroneous-paths-dereference -fivopts -fkeep-static-consts
  50              	@ -fleading-underscore -fmath-errno -fmerge-constants -fmerge-debug-strings
  51              	@ -fomit-frame-pointer -foptimize-sibling-calls -fpartial-inlining
  52              	@ -fpeephole -fpeephole2 -fprefetch-loop-arrays -freg-struct-return
  53              	@ -freorder-blocks -freorder-functions -frerun-cse-after-loop
  54              	@ -fsched-critical-path-heuristic -fsched-dep-count-heuristic
  55              	@ -fsched-group-heuristic -fsched-interblock -fsched-last-insn-heuristic
  56              	@ -fsched-pressure -fsched-rank-heuristic -fsched-spec
  57              	@ -fsched-spec-insn-heuristic -fsched-stalled-insns-dep -fschedule-insns2
ARM GAS  C:\cygwin\tmp\ccLslhqF.s 			page 2


  58              	@ -fsection-anchors -fshow-column -fsigned-zeros -fsplit-ivs-in-unroller
  59              	@ -fsplit-wide-types -fstrict-aliasing -fstrict-overflow
  60              	@ -fstrict-volatile-bitfields -fsync-libcalls -fthread-jumps
  61              	@ -ftoplevel-reorder -ftrapping-math -ftree-bit-ccp -ftree-builtin-call-dce
  62              	@ -ftree-ccp -ftree-ch -ftree-coalesce-vars -ftree-copy-prop
  63              	@ -ftree-copyrename -ftree-cselim -ftree-dce -ftree-dominator-opts
  64              	@ -ftree-dse -ftree-forwprop -ftree-fre -ftree-loop-if-convert
  65              	@ -ftree-loop-im -ftree-loop-ivcanon -ftree-loop-optimize
  66              	@ -ftree-parallelize-loops= -ftree-phiprop -ftree-pre -ftree-pta
  67              	@ -ftree-reassoc -ftree-scev-cprop -ftree-sink -ftree-slsr -ftree-sra
  68              	@ -ftree-switch-conversion -ftree-tail-merge -ftree-ter -ftree-vrp
  69              	@ -funit-at-a-time -fvar-tracking -fvar-tracking-assignments -fverbose-asm
  70              	@ -fzero-initialized-in-bss -mlittle-endian -mlra
  71              	@ -mpic-data-is-text-relative -msched-prolog -mthumb -munaligned-access
  72              	@ -mvectorize-with-neon-quad
  73              	
  74              		.text
  75              	.Ltext0:
  76              		.cfi_sections	.debug_frame
  77              		.section	.text.GUI_X_GetTime,"ax",%progbits
  78              		.align	1
  79              		.global	GUI_X_GetTime
  80              		.thumb
  81              		.thumb_func
  82              		.type	GUI_X_GetTime, %function
  83              	GUI_X_GetTime:
  84              	.LFB0:
  85              		.file 1 "emWin/os/GUI_X.c"
   1:emWin/os/GUI_X.c **** /*********************************************************************
   2:emWin/os/GUI_X.c **** *          Portions COPYRIGHT 2013 STMicroelectronics                *
   3:emWin/os/GUI_X.c **** *          Portions SEGGER Microcontroller GmbH & Co. KG             *
   4:emWin/os/GUI_X.c **** *        Solutions for real time microcontroller applications        *
   5:emWin/os/GUI_X.c **** **********************************************************************
   6:emWin/os/GUI_X.c **** *                                                                    *
   7:emWin/os/GUI_X.c **** *        (c) 1996 - 2013  SEGGER Microcontroller GmbH & Co. KG       *
   8:emWin/os/GUI_X.c **** *                                                                    *
   9:emWin/os/GUI_X.c **** *        Internet: www.segger.com    Support:  support@segger.com    *
  10:emWin/os/GUI_X.c **** *                                                                    *
  11:emWin/os/GUI_X.c **** **********************************************************************
  12:emWin/os/GUI_X.c **** 
  13:emWin/os/GUI_X.c **** ** emWin V5.22 - Graphical user interface for embedded applications **
  14:emWin/os/GUI_X.c **** All  Intellectual Property rights  in the Software belongs to  SEGGER.
  15:emWin/os/GUI_X.c **** emWin is protected by  international copyright laws.  Knowledge of the
  16:emWin/os/GUI_X.c **** source code may not be used to write a similar product.  This file may
  17:emWin/os/GUI_X.c **** only be used in accordance with the following terms:
  18:emWin/os/GUI_X.c **** 
  19:emWin/os/GUI_X.c **** The  software has  been licensed  to STMicroelectronics International
  20:emWin/os/GUI_X.c **** N.V. a Dutch company with a Swiss branch and its headquarters in Plan-
  21:emWin/os/GUI_X.c **** les-Ouates, Geneva, 39 Chemin du Champ des Filles, Switzerland for the
  22:emWin/os/GUI_X.c **** purposes of creating libraries for ARM Cortex-M-based 32-bit microcon_
  23:emWin/os/GUI_X.c **** troller products commercialized by Licensee only, sublicensed and dis_
  24:emWin/os/GUI_X.c **** tributed under the terms and conditions of the End User License Agree_
  25:emWin/os/GUI_X.c **** ment supplied by STMicroelectronics International N.V.
  26:emWin/os/GUI_X.c **** Full source code is available at: www.segger.com
  27:emWin/os/GUI_X.c **** 
  28:emWin/os/GUI_X.c **** We appreciate your understanding and fairness.
  29:emWin/os/GUI_X.c **** ----------------------------------------------------------------------
ARM GAS  C:\cygwin\tmp\ccLslhqF.s 			page 3


  30:emWin/os/GUI_X.c **** File        : GUI_X.C
  31:emWin/os/GUI_X.c **** Purpose     : Config / System dependent externals for GUI
  32:emWin/os/GUI_X.c **** ---------------------------END-OF-HEADER------------------------------
  33:emWin/os/GUI_X.c **** */
  34:emWin/os/GUI_X.c **** 
  35:emWin/os/GUI_X.c **** /**
  36:emWin/os/GUI_X.c ****   ******************************************************************************
  37:emWin/os/GUI_X.c ****   * @attention
  38:emWin/os/GUI_X.c ****   *
  39:emWin/os/GUI_X.c ****   * Licensed under MCD-ST Liberty SW License Agreement V2, (the "License");
  40:emWin/os/GUI_X.c ****   * You may not use this file except in compliance with the License.
  41:emWin/os/GUI_X.c ****   * You may obtain a copy of the License at:
  42:emWin/os/GUI_X.c ****   *
  43:emWin/os/GUI_X.c ****   *        http://www.st.com/software_license_agreement_liberty_v2
  44:emWin/os/GUI_X.c ****   *
  45:emWin/os/GUI_X.c ****   * Unless required by applicable law or agreed to in writing, software 
  46:emWin/os/GUI_X.c ****   * distributed under the License is distributed on an "AS IS" BASIS, 
  47:emWin/os/GUI_X.c ****   * WITHOUT WARRANTIES OR CONDITIONS OF ANY KIND, either express or implied.
  48:emWin/os/GUI_X.c ****   * See the License for the specific language governing permissions and
  49:emWin/os/GUI_X.c ****   * limitations under the License.
  50:emWin/os/GUI_X.c ****   *
  51:emWin/os/GUI_X.c ****   ******************************************************************************
  52:emWin/os/GUI_X.c ****   */
  53:emWin/os/GUI_X.c **** 
  54:emWin/os/GUI_X.c **** #include "GUI.h"
  55:emWin/os/GUI_X.c **** 
  56:emWin/os/GUI_X.c **** /*********************************************************************
  57:emWin/os/GUI_X.c **** *
  58:emWin/os/GUI_X.c **** *       Global data
  59:emWin/os/GUI_X.c **** */
  60:emWin/os/GUI_X.c **** volatile GUI_TIMER_TIME OS_TimeMS;
  61:emWin/os/GUI_X.c **** 
  62:emWin/os/GUI_X.c **** /*********************************************************************
  63:emWin/os/GUI_X.c **** *
  64:emWin/os/GUI_X.c **** *      Timing:
  65:emWin/os/GUI_X.c **** *                 GUI_X_GetTime()
  66:emWin/os/GUI_X.c **** *                 GUI_X_Delay(int)
  67:emWin/os/GUI_X.c **** 
  68:emWin/os/GUI_X.c ****   Some timing dependent routines require a GetTime
  69:emWin/os/GUI_X.c ****   and delay function. Default time unit (tick), normally is
  70:emWin/os/GUI_X.c ****   1 ms.
  71:emWin/os/GUI_X.c **** */
  72:emWin/os/GUI_X.c **** 
  73:emWin/os/GUI_X.c **** GUI_TIMER_TIME GUI_X_GetTime(void) { 
  86              		.loc 1 73 0
  87              		.cfi_startproc
  88              		@ args = 0, pretend = 0, frame = 0
  89              		@ frame_needed = 0, uses_anonymous_args = 0
  90              		@ link register save eliminated.
  74:emWin/os/GUI_X.c ****   return OS_TimeMS; 
  91              		.loc 1 74 0
  92 0000 014B     		ldr	r3, .L2	@ tmp112,
  93 0002 1868     		ldr	r0, [r3]	@ D.7586, OS_TimeMS
  75:emWin/os/GUI_X.c **** }
  94              		.loc 1 75 0
  95 0004 7047     		bx	lr	@
  96              	.L3:
ARM GAS  C:\cygwin\tmp\ccLslhqF.s 			page 4


  97 0006 00BF     		.align	2
  98              	.L2:
  99 0008 00000000 		.word	OS_TimeMS
 100              		.cfi_endproc
 101              	.LFE0:
 102              		.size	GUI_X_GetTime, .-GUI_X_GetTime
 103              		.section	.text.GUI_X_Delay,"ax",%progbits
 104              		.align	1
 105              		.global	GUI_X_Delay
 106              		.thumb
 107              		.thumb_func
 108              		.type	GUI_X_Delay, %function
 109              	GUI_X_Delay:
 110              	.LFB1:
  76:emWin/os/GUI_X.c **** 
  77:emWin/os/GUI_X.c **** void GUI_X_Delay(int ms) { 
 111              		.loc 1 77 0
 112              		.cfi_startproc
 113              		@ args = 0, pretend = 0, frame = 0
 114              		@ frame_needed = 0, uses_anonymous_args = 0
 115              		@ link register save eliminated.
 116              	.LVL0:
  78:emWin/os/GUI_X.c ****   int tEnd = OS_TimeMS + ms;
 117              		.loc 1 78 0
 118 0000 034B     		ldr	r3, .L8	@ tmp115,
 119 0002 1A68     		ldr	r2, [r3]	@ D.7589, OS_TimeMS
 120 0004 1044     		add	r0, r0, r2	@ tEnd, D.7589
 121              	.LVL1:
 122              	.L5:
  79:emWin/os/GUI_X.c ****   while ((tEnd - OS_TimeMS) > 0);
 123              		.loc 1 79 0 discriminator 1
 124 0006 1A68     		ldr	r2, [r3]	@ D.7589, OS_TimeMS
 125 0008 821A     		subs	r2, r0, r2	@ D.7589, tEnd, D.7589
 126 000a 002A     		cmp	r2, #0	@ D.7589,
 127 000c FBDC     		bgt	.L5	@,
  80:emWin/os/GUI_X.c **** }
 128              		.loc 1 80 0
 129 000e 7047     		bx	lr	@
 130              	.L9:
 131              		.align	2
 132              	.L8:
 133 0010 00000000 		.word	OS_TimeMS
 134              		.cfi_endproc
 135              	.LFE1:
 136              		.size	GUI_X_Delay, .-GUI_X_Delay
 137              		.section	.text.GUI_X_Init,"ax",%progbits
 138              		.align	1
 139              		.global	GUI_X_Init
 140              		.thumb
 141              		.thumb_func
 142              		.type	GUI_X_Init, %function
 143              	GUI_X_Init:
 144              	.LFB2:
  81:emWin/os/GUI_X.c **** 
  82:emWin/os/GUI_X.c **** /*********************************************************************
  83:emWin/os/GUI_X.c **** *
  84:emWin/os/GUI_X.c **** *       GUI_X_Init()
ARM GAS  C:\cygwin\tmp\ccLslhqF.s 			page 5


  85:emWin/os/GUI_X.c **** *
  86:emWin/os/GUI_X.c **** * Note:
  87:emWin/os/GUI_X.c **** *     GUI_X_Init() is called from GUI_Init is a possibility to init
  88:emWin/os/GUI_X.c **** *     some hardware which needs to be up and running before the GUI.
  89:emWin/os/GUI_X.c **** *     If not required, leave this routine blank.
  90:emWin/os/GUI_X.c **** */
  91:emWin/os/GUI_X.c **** 
  92:emWin/os/GUI_X.c **** void GUI_X_Init(void) {}
 145              		.loc 1 92 0
 146              		.cfi_startproc
 147              		@ args = 0, pretend = 0, frame = 0
 148              		@ frame_needed = 0, uses_anonymous_args = 0
 149              		@ link register save eliminated.
 150 0000 7047     		bx	lr	@
 151              		.cfi_endproc
 152              	.LFE2:
 153              		.size	GUI_X_Init, .-GUI_X_Init
 154              		.section	.text.GUI_X_ExecIdle,"ax",%progbits
 155              		.align	1
 156              		.global	GUI_X_ExecIdle
 157              		.thumb
 158              		.thumb_func
 159              		.type	GUI_X_ExecIdle, %function
 160              	GUI_X_ExecIdle:
 161              	.LFB3:
  93:emWin/os/GUI_X.c **** 
  94:emWin/os/GUI_X.c **** 
  95:emWin/os/GUI_X.c **** /*********************************************************************
  96:emWin/os/GUI_X.c **** *
  97:emWin/os/GUI_X.c **** *       GUI_X_ExecIdle
  98:emWin/os/GUI_X.c **** *
  99:emWin/os/GUI_X.c **** * Note:
 100:emWin/os/GUI_X.c **** *  Called if WM is in idle state
 101:emWin/os/GUI_X.c **** */
 102:emWin/os/GUI_X.c **** 
 103:emWin/os/GUI_X.c **** void GUI_X_ExecIdle(void) {}
 162              		.loc 1 103 0
 163              		.cfi_startproc
 164              		@ args = 0, pretend = 0, frame = 0
 165              		@ frame_needed = 0, uses_anonymous_args = 0
 166              		@ link register save eliminated.
 167 0000 7047     		bx	lr	@
 168              		.cfi_endproc
 169              	.LFE3:
 170              		.size	GUI_X_ExecIdle, .-GUI_X_ExecIdle
 171              		.section	.text.GUI_X_Log,"ax",%progbits
 172              		.align	1
 173              		.global	GUI_X_Log
 174              		.thumb
 175              		.thumb_func
 176              		.type	GUI_X_Log, %function
 177              	GUI_X_Log:
 178              	.LFB4:
 104:emWin/os/GUI_X.c **** 
 105:emWin/os/GUI_X.c **** /*********************************************************************
 106:emWin/os/GUI_X.c **** *
 107:emWin/os/GUI_X.c **** *      Logging: OS dependent
ARM GAS  C:\cygwin\tmp\ccLslhqF.s 			page 6


 108:emWin/os/GUI_X.c **** 
 109:emWin/os/GUI_X.c **** Note:
 110:emWin/os/GUI_X.c ****   Logging is used in higher debug levels only. The typical target
 111:emWin/os/GUI_X.c ****   build does not use logging and does therefor not require any of
 112:emWin/os/GUI_X.c ****   the logging routines below. For a release build without logging
 113:emWin/os/GUI_X.c ****   the routines below may be eliminated to save some space.
 114:emWin/os/GUI_X.c ****   (If the linker is not function aware and eliminates unreferenced
 115:emWin/os/GUI_X.c ****   functions automatically)
 116:emWin/os/GUI_X.c **** 
 117:emWin/os/GUI_X.c **** */
 118:emWin/os/GUI_X.c **** 
 119:emWin/os/GUI_X.c **** void GUI_X_Log     (const char *s) { GUI_USE_PARA(s); }
 179              		.loc 1 119 0
 180              		.cfi_startproc
 181              		@ args = 0, pretend = 0, frame = 0
 182              		@ frame_needed = 0, uses_anonymous_args = 0
 183              		@ link register save eliminated.
 184              	.LVL2:
 185 0000 7047     		bx	lr	@
 186              		.cfi_endproc
 187              	.LFE4:
 188              		.size	GUI_X_Log, .-GUI_X_Log
 189              		.section	.text.GUI_X_Warn,"ax",%progbits
 190              		.align	1
 191              		.global	GUI_X_Warn
 192              		.thumb
 193              		.thumb_func
 194              		.type	GUI_X_Warn, %function
 195              	GUI_X_Warn:
 196              	.LFB5:
 120:emWin/os/GUI_X.c **** void GUI_X_Warn    (const char *s) { GUI_USE_PARA(s); }
 197              		.loc 1 120 0
 198              		.cfi_startproc
 199              		@ args = 0, pretend = 0, frame = 0
 200              		@ frame_needed = 0, uses_anonymous_args = 0
 201              		@ link register save eliminated.
 202              	.LVL3:
 203 0000 7047     		bx	lr	@
 204              		.cfi_endproc
 205              	.LFE5:
 206              		.size	GUI_X_Warn, .-GUI_X_Warn
 207              		.section	.text.GUI_X_ErrorOut,"ax",%progbits
 208              		.align	1
 209              		.global	GUI_X_ErrorOut
 210              		.thumb
 211              		.thumb_func
 212              		.type	GUI_X_ErrorOut, %function
 213              	GUI_X_ErrorOut:
 214              	.LFB6:
 121:emWin/os/GUI_X.c **** void GUI_X_ErrorOut(const char *s) { GUI_USE_PARA(s); }
 215              		.loc 1 121 0
 216              		.cfi_startproc
 217              		@ args = 0, pretend = 0, frame = 0
 218              		@ frame_needed = 0, uses_anonymous_args = 0
 219              		@ link register save eliminated.
 220              	.LVL4:
 221 0000 7047     		bx	lr	@
ARM GAS  C:\cygwin\tmp\ccLslhqF.s 			page 7


 222              		.cfi_endproc
 223              	.LFE6:
 224              		.size	GUI_X_ErrorOut, .-GUI_X_ErrorOut
 225              		.comm	OS_TimeMS,4,4
 226              		.text
 227              	.Letext0: