ARM GAS  C:\cygwin\tmp\ccx6LPCH.s 			page 1


   1              		.syntax unified
   2              		.cpu cortex-m4
   3              		.fpu softvfp
   4              		.eabi_attribute 20, 1	@ Tag_ABI_FP_denormal
   5              		.eabi_attribute 21, 1	@ Tag_ABI_FP_exceptions
   6              		.eabi_attribute 23, 3	@ Tag_ABI_FP_number_model
   7              		.eabi_attribute 24, 1	@ Tag_ABI_align8_needed
   8              		.eabi_attribute 25, 1	@ Tag_ABI_align8_preserved
   9              		.eabi_attribute 26, 1	@ Tag_ABI_enum_size
  10              		.eabi_attribute 30, 4	@ Tag_ABI_optimization_goals
  11              		.eabi_attribute 34, 1	@ Tag_CPU_unaligned_access
  12              		.eabi_attribute 18, 4	@ Tag_ABI_PCS_wchar_t
  13              		.file	"ili_9341.c"
  14              	@ GNU C (GNU Tools for ARM Embedded Processors) version 4.9.3 20141119 (release) [ARM/embedded-4_9-
  15              	@	compiled by GNU C version 4.7.4, GMP version 4.3.2, MPFR version 2.4.2, MPC version 0.8.1
  16              	@ GGC heuristics: --param ggc-min-expand=100 --param ggc-min-heapsize=131072
  17              	@ options passed:  -I . -I Inc -I gui -I emWin -I emWin/config
  18              	@ -I freemodbus-v1.5.0/port -I freemodbus-v1.5.0/modbus/include
  19              	@ -I freemodbus-v1.5.0/modbus/ascii -I freemodbus-v1.5.0/modbus/rtu
  20              	@ -I ../STM32Cube_FW_F4_V1.4.0/Drivers/CMSIS/Include
  21              	@ -I ../STM32Cube_FW_F4_V1.4.0/Drivers/CMSIS/Device/ST/STM32F4xx/Include
  22              	@ -I ../STM32Cube_FW_F4_V1.4.0/Drivers/STM32F4xx_HAL_Driver/Inc
  23              	@ -I ../STM32Cube_FW_F4_V1.4.0/Drivers/CMSIS/Include
  24              	@ -I ../STM32Cube_FW_F4_V1.4.0/Middlewares/ST/STemWin/inc
  25              	@ -I ../STM32Cube_FW_F4_V1.4.0/Middlewares/Third_Party/FatFs/src
  26              	@ -I ../STM32Cube_FW_F4_V1.4.0/Middlewares/Third_Party/FatFs/src/drivers/sd
  27              	@ -I ./drivers/display -imultilib armv7e-m
  28              	@ -iprefix c:\program files\gcc-arm-none-eabi-4_9-2014\bin\../lib/gcc/arm-none-eabi/4.9.3/
  29              	@ -isysroot c:\program files\gcc-arm-none-eabi-4_9-2014\bin\../arm-none-eabi
  30              	@ -MD out/ili_9341.d -MF out/ili_9341.d -MP -MQ out/ili_9341.o
  31              	@ -D__USES_INITFINI__ -D USE_HAL_DRIVER -D STM32F4XX -D HSE_VALUE=25000000
  32              	@ -D STM32F437xx -D USE_FULL_ASSERT -D __GNUC__ -D __VFP_FP__
  33              	@ -D ARM_MATH_CM4 -D LOG_INFO ./drivers/display/ili_9341.c -mcpu=cortex-m4
  34              	@ -mthumb -auxbase-strip out/ili_9341.o -g -ggdb3 -Os -Os -Wall
  35              	@ -Wstrict-prototypes -Wextra -std=gnu90 -ffunction-sections
  36              	@ -fdata-sections -fverbose-asm
  37              	@ options enabled:  -faggressive-loop-optimizations -fauto-inc-dec
  38              	@ -fbranch-count-reg -fcaller-saves -fcombine-stack-adjustments -fcommon
  39              	@ -fcompare-elim -fcprop-registers -fcrossjumping -fcse-follow-jumps
  40              	@ -fdata-sections -fdefer-pop -fdelete-null-pointer-checks -fdevirtualize
  41              	@ -fdevirtualize-speculatively -fdwarf2-cfi-asm -fearly-inlining
  42              	@ -feliminate-unused-debug-types -fexpensive-optimizations
  43              	@ -fforward-propagate -ffunction-cse -ffunction-sections -fgcse -fgcse-lm
  44              	@ -fgnu-runtime -fgnu-unique -fguess-branch-probability
  45              	@ -fhoist-adjacent-loads -fident -fif-conversion -fif-conversion2
  46              	@ -findirect-inlining -finline -finline-atomics -finline-functions
  47              	@ -finline-functions-called-once -finline-small-functions -fipa-cp
  48              	@ -fipa-profile -fipa-pure-const -fipa-reference -fipa-sra
  49              	@ -fira-hoist-pressure -fira-share-save-slots -fira-share-spill-slots
  50              	@ -fisolate-erroneous-paths-dereference -fivopts -fkeep-static-consts
  51              	@ -fleading-underscore -fmath-errno -fmerge-constants -fmerge-debug-strings
  52              	@ -fomit-frame-pointer -foptimize-sibling-calls -fpartial-inlining
  53              	@ -fpeephole -fpeephole2 -fprefetch-loop-arrays -freg-struct-return
  54              	@ -freorder-blocks -freorder-functions -frerun-cse-after-loop
  55              	@ -fsched-critical-path-heuristic -fsched-dep-count-heuristic
  56              	@ -fsched-group-heuristic -fsched-interblock -fsched-last-insn-heuristic
  57              	@ -fsched-pressure -fsched-rank-heuristic -fsched-spec
ARM GAS  C:\cygwin\tmp\ccx6LPCH.s 			page 2


  58              	@ -fsched-spec-insn-heuristic -fsched-stalled-insns-dep -fschedule-insns2
  59              	@ -fsection-anchors -fshow-column -fsigned-zeros -fsplit-ivs-in-unroller
  60              	@ -fsplit-wide-types -fstrict-aliasing -fstrict-overflow
  61              	@ -fstrict-volatile-bitfields -fsync-libcalls -fthread-jumps
  62              	@ -ftoplevel-reorder -ftrapping-math -ftree-bit-ccp -ftree-builtin-call-dce
  63              	@ -ftree-ccp -ftree-ch -ftree-coalesce-vars -ftree-copy-prop
  64              	@ -ftree-copyrename -ftree-cselim -ftree-dce -ftree-dominator-opts
  65              	@ -ftree-dse -ftree-forwprop -ftree-fre -ftree-loop-if-convert
  66              	@ -ftree-loop-im -ftree-loop-ivcanon -ftree-loop-optimize
  67              	@ -ftree-parallelize-loops= -ftree-phiprop -ftree-pre -ftree-pta
  68              	@ -ftree-reassoc -ftree-scev-cprop -ftree-sink -ftree-slsr -ftree-sra
  69              	@ -ftree-switch-conversion -ftree-tail-merge -ftree-ter -ftree-vrp
  70              	@ -funit-at-a-time -fvar-tracking -fvar-tracking-assignments -fverbose-asm
  71              	@ -fzero-initialized-in-bss -mlittle-endian -mlra
  72              	@ -mpic-data-is-text-relative -msched-prolog -mthumb -munaligned-access
  73              	@ -mvectorize-with-neon-quad
  74              	
  75              		.text
  76              	.Ltext0:
  77              		.cfi_sections	.debug_frame
  78              		.section	.text.tft_delay,"ax",%progbits
  79              		.align	1
  80              		.global	tft_delay
  81              		.thumb
  82              		.thumb_func
  83              		.type	tft_delay, %function
  84              	tft_delay:
  85              	.LFB124:
  86              		.file 1 "./drivers/display/ili_9341.c"
   1:./drivers/display/ili_9341.c **** /**
   2:./drivers/display/ili_9341.c ****   ******************************************************************************
   3:./drivers/display/ili_9341.c ****   * @file    ili_9341.c 
   4:./drivers/display/ili_9341.c ****   * @author  Multicalor NV
   5:./drivers/display/ili_9341.c ****   * @version V1.0.0
   6:./drivers/display/ili_9341.c ****   * @date    23-01-2015
   7:./drivers/display/ili_9341.c ****   * @brief   Display Driver
   8:./drivers/display/ili_9341.c **** 	@brief	Verventa 1.0.0
   9:./drivers/display/ili_9341.c ****   ******************************************************************************
  10:./drivers/display/ili_9341.c ****   * @attention
  11:./drivers/display/ili_9341.c ****   *
  12:./drivers/display/ili_9341.c ****   *
  13:./drivers/display/ili_9341.c ****   * Redistribution and use in source and binary forms, with or without modification,
  14:./drivers/display/ili_9341.c ****   * are permitted provided that the following conditions are met:
  15:./drivers/display/ili_9341.c ****   *   1. Redistributions of source code must retain the above copyright notice,
  16:./drivers/display/ili_9341.c ****   *      this list of conditions and the following disclaimer.
  17:./drivers/display/ili_9341.c ****   *   2. Redistributions in binary form must reproduce the above copyright notice,
  18:./drivers/display/ili_9341.c ****   *      this list of conditions and the following disclaimer in the documentation
  19:./drivers/display/ili_9341.c ****   *      and/or other materials provided with the distribution.
  20:./drivers/display/ili_9341.c ****   *   3. Neither the name of Verventa nor the names of its contributors
  21:./drivers/display/ili_9341.c ****   *      may be used to endorse or promote products derived from this software
  22:./drivers/display/ili_9341.c ****   *      without specific prior written permission.
  23:./drivers/display/ili_9341.c ****   *
  24:./drivers/display/ili_9341.c ****   * THIS SOFTWARE IS PROVIDED BY THE COPYRIGHT HOLDERS AND CONTRIBUTORS "AS IS"
  25:./drivers/display/ili_9341.c ****   * AND ANY EXPRESS OR IMPLIED WARRANTIES, INCLUDING, BUT NOT LIMITED TO, THE
  26:./drivers/display/ili_9341.c ****   * IMPLIED WARRANTIES OF MERCHANTABILITY AND FITNESS FOR A PARTICULAR PURPOSE ARE
  27:./drivers/display/ili_9341.c ****   * DISCLAIMED. IN NO EVENT SHALL THE COPYRIGHT HOLDER OR CONTRIBUTORS BE LIABLE
  28:./drivers/display/ili_9341.c ****   * FOR ANY DIRECT, INDIRECT, INCIDENTAL, SPECIAL, EXEMPLARY, OR CONSEQUENTIAL
ARM GAS  C:\cygwin\tmp\ccx6LPCH.s 			page 3


  29:./drivers/display/ili_9341.c ****   * DAMAGES (INCLUDING, BUT NOT LIMITED TO, PROCUREMENT OF SUBSTITUTE GOODS OR
  30:./drivers/display/ili_9341.c ****   * SERVICES; LOSS OF USE, DATA, OR PROFITS; OR BUSINESS INTERRUPTION) HOWEVER
  31:./drivers/display/ili_9341.c ****   * CAUSED AND ON ANY THEORY OF LIABILITY, WHETHER IN CONTRACT, STRICT LIABILITY,
  32:./drivers/display/ili_9341.c ****   * OR TORT (INCLUDING NEGLIGENCE OR OTHERWISE) ARISING IN ANY WAY OUT OF THE USE
  33:./drivers/display/ili_9341.c ****   * OF THIS SOFTWARE, EVEN IF ADVISED OF THE POSSIBILITY OF SUCH DAMAGE.
  34:./drivers/display/ili_9341.c ****   *
  35:./drivers/display/ili_9341.c ****   ******************************************************************************
  36:./drivers/display/ili_9341.c ****   */
  37:./drivers/display/ili_9341.c **** /* Includes ------------------------------------------------------------------*/
  38:./drivers/display/ili_9341.c **** #include "ili_9341.h"
  39:./drivers/display/ili_9341.c **** 
  40:./drivers/display/ili_9341.c **** 
  41:./drivers/display/ili_9341.c **** /*void set_tft_window(int16_t x1, int16_t y1, int16_t x2, int16_t y2) {
  42:./drivers/display/ili_9341.c **** 
  43:./drivers/display/ili_9341.c **** 	LCD_REG  = COLUMN_ADDRESS_SET;
  44:./drivers/display/ili_9341.c **** 	LCD_DATA = 0;
  45:./drivers/display/ili_9341.c **** 	LCD_DATA = x1;
  46:./drivers/display/ili_9341.c **** 	LCD_DATA = 0;
  47:./drivers/display/ili_9341.c **** 	LCD_DATA = x2;
  48:./drivers/display/ili_9341.c **** 
  49:./drivers/display/ili_9341.c **** 	LCD_REG  = PAGE_ADDRESS_SET;
  50:./drivers/display/ili_9341.c **** 	LCD_DATA = (y1 >> 8);
  51:./drivers/display/ili_9341.c **** 	LCD_DATA = (y1 & 0xFF);
  52:./drivers/display/ili_9341.c **** 	LCD_DATA = (y2 >> 8);
  53:./drivers/display/ili_9341.c **** 	LCD_DATA = (y2 & 0xFF);
  54:./drivers/display/ili_9341.c **** 
  55:./drivers/display/ili_9341.c **** }*/
  56:./drivers/display/ili_9341.c **** 
  57:./drivers/display/ili_9341.c **** /*void tft_fill_rect(uint16_t x, uint16_t y, uint16_t w, uint16_t h, uint16_t color) {
  58:./drivers/display/ili_9341.c **** 	uint32_t pixels;
  59:./drivers/display/ili_9341.c **** 	pixels = w * h;
  60:./drivers/display/ili_9341.c **** 	set_tft_window(x, y, (x + w - 1), (y + h - 1));
  61:./drivers/display/ili_9341.c **** 	LCD_REG = MEMORY_WRITE;
  62:./drivers/display/ili_9341.c **** 	while (pixels--)
  63:./drivers/display/ili_9341.c **** 		LCD_DATA = color;
  64:./drivers/display/ili_9341.c **** }*/
  65:./drivers/display/ili_9341.c **** 
  66:./drivers/display/ili_9341.c **** /*void tft_write_cmd (uint8_t cmd, uint16_t value) {
  67:./drivers/display/ili_9341.c **** 	LCD_REG = cmd;
  68:./drivers/display/ili_9341.c **** 	LCD_DATA = value;
  69:./drivers/display/ili_9341.c **** }*/
  70:./drivers/display/ili_9341.c **** 
  71:./drivers/display/ili_9341.c **** /*uint16_t tft_read_reg(uint8_t reg){
  72:./drivers/display/ili_9341.c **** 	LCD_REG = reg;
  73:./drivers/display/ili_9341.c **** 	return LCD_DATA;
  74:./drivers/display/ili_9341.c **** }*/
  75:./drivers/display/ili_9341.c **** 
  76:./drivers/display/ili_9341.c **** /*void tft_draw_pixel(uint16_t x, uint16_t y, uint16_t color) {
  77:./drivers/display/ili_9341.c **** 	if ((x>TFT_WIDTH) || (y>TFT_HEIGHT)) {
  78:./drivers/display/ili_9341.c **** 		return;
  79:./drivers/display/ili_9341.c **** 	}
  80:./drivers/display/ili_9341.c **** 	set_tft_window(x, y, TFT_WIDTH, TFT_HEIGHT);
  81:./drivers/display/ili_9341.c **** 	LCD_REG = MEMORY_WRITE;
  82:./drivers/display/ili_9341.c **** 	LCD_DATA = color;
  83:./drivers/display/ili_9341.c **** }*/
  84:./drivers/display/ili_9341.c **** 
  85:./drivers/display/ili_9341.c **** 
ARM GAS  C:\cygwin\tmp\ccx6LPCH.s 			page 4


  86:./drivers/display/ili_9341.c **** void init_ili9341(void) {
  87:./drivers/display/ili_9341.c **** 
  88:./drivers/display/ili_9341.c **** 	LCD_REG		= EXIT_SLEEP_MODE;
  89:./drivers/display/ili_9341.c **** 	tft_delay(50000);
  90:./drivers/display/ili_9341.c **** 
  91:./drivers/display/ili_9341.c ****  	LCD_REG		= POWER_CONTROL_B;
  92:./drivers/display/ili_9341.c **** 	LCD_DATA = 0x00;
  93:./drivers/display/ili_9341.c **** 	LCD_DATA = 0xc3;
  94:./drivers/display/ili_9341.c **** 	LCD_DATA = 0X30;
  95:./drivers/display/ili_9341.c **** 
  96:./drivers/display/ili_9341.c ****  	LCD_REG  = 0xED;
  97:./drivers/display/ili_9341.c **** 	LCD_DATA = 0x64;
  98:./drivers/display/ili_9341.c **** 	LCD_DATA = 0x03;
  99:./drivers/display/ili_9341.c **** 	LCD_DATA = 0X12;
 100:./drivers/display/ili_9341.c **** 	LCD_DATA = 0X81;
 101:./drivers/display/ili_9341.c **** 
 102:./drivers/display/ili_9341.c ****  	LCD_REG  = 0xE8;
 103:./drivers/display/ili_9341.c **** 	LCD_DATA = 0x85;
 104:./drivers/display/ili_9341.c **** 	LCD_DATA = 0x10;
 105:./drivers/display/ili_9341.c **** 	LCD_DATA = 0x79;
 106:./drivers/display/ili_9341.c **** 
 107:./drivers/display/ili_9341.c ****  	LCD_REG  = 0xCB;
 108:./drivers/display/ili_9341.c **** 	LCD_DATA = 0x39;
 109:./drivers/display/ili_9341.c **** 	LCD_DATA = 0x2C;
 110:./drivers/display/ili_9341.c **** 	LCD_DATA = 0x00;
 111:./drivers/display/ili_9341.c **** 	LCD_DATA = 0x34;
 112:./drivers/display/ili_9341.c **** 	LCD_DATA = 0x02;
 113:./drivers/display/ili_9341.c **** 
 114:./drivers/display/ili_9341.c ****  	LCD_REG  = 0xF7;
 115:./drivers/display/ili_9341.c **** 	LCD_DATA = 0x20;
 116:./drivers/display/ili_9341.c **** 
 117:./drivers/display/ili_9341.c ****  	LCD_REG  = 0xEA;
 118:./drivers/display/ili_9341.c **** 	LCD_DATA = 0x00;
 119:./drivers/display/ili_9341.c **** 	LCD_DATA = 0x00;
 120:./drivers/display/ili_9341.c **** 
 121:./drivers/display/ili_9341.c ****  	LCD_REG  = 0xC0;    //Power control
 122:./drivers/display/ili_9341.c **** 	LCD_DATA = 0x22;   	//VRH[5:0]
 123:./drivers/display/ili_9341.c **** 
 124:./drivers/display/ili_9341.c ****  	LCD_REG  = 0xC1;    //Power control
 125:./drivers/display/ili_9341.c **** 	LCD_DATA = 0x11;   	//SAP[2:0];BT[3:0]
 126:./drivers/display/ili_9341.c **** 
 127:./drivers/display/ili_9341.c ****  	LCD_REG  = 0xC5;    //VCM control
 128:./drivers/display/ili_9341.c **** 	LCD_DATA = 0x3d;
 129:./drivers/display/ili_9341.c **** 						//LCD_DataWrite_ILI9341(0x30);
 130:./drivers/display/ili_9341.c **** 	LCD_DATA = 0x20;
 131:./drivers/display/ili_9341.c **** 
 132:./drivers/display/ili_9341.c ****  	LCD_REG = 0xC7;    	//VCM control2
 133:./drivers/display/ili_9341.c **** 						//LCD_DataWrite_ILI9341(0xBD);
 134:./drivers/display/ili_9341.c **** 	LCD_DATA = 0xAA; 	//0xB0
 135:./drivers/display/ili_9341.c **** 
 136:./drivers/display/ili_9341.c ****  	LCD_REG  = 0x36;    // Memory Access Control
 137:./drivers/display/ili_9341.c **** 	LCD_DATA = 0x88;
 138:./drivers/display/ili_9341.c **** 
 139:./drivers/display/ili_9341.c ****  	LCD_REG  = 0x3A;
 140:./drivers/display/ili_9341.c **** 	LCD_DATA = 0x55;
 141:./drivers/display/ili_9341.c **** 
 142:./drivers/display/ili_9341.c ****  	LCD_REG  = 0xB1;
ARM GAS  C:\cygwin\tmp\ccx6LPCH.s 			page 5


 143:./drivers/display/ili_9341.c **** 	LCD_DATA = 0x00;
 144:./drivers/display/ili_9341.c **** 	LCD_DATA = 0x13;
 145:./drivers/display/ili_9341.c **** 
 146:./drivers/display/ili_9341.c ****  	LCD_REG  = 0xB6;    // Display Function Control
 147:./drivers/display/ili_9341.c **** 	LCD_DATA = 0x0A;
 148:./drivers/display/ili_9341.c **** 	LCD_DATA = 0xA2;
 149:./drivers/display/ili_9341.c **** 
 150:./drivers/display/ili_9341.c ****  	LCD_REG  = 0xF6;
 151:./drivers/display/ili_9341.c **** 	LCD_DATA = 0x01;
 152:./drivers/display/ili_9341.c **** 	LCD_DATA = 0x30;
 153:./drivers/display/ili_9341.c **** 
 154:./drivers/display/ili_9341.c ****  	LCD_REG  = 0xF2;    // 3Gamma Function Disable
 155:./drivers/display/ili_9341.c **** 	LCD_DATA = 0x00;
 156:./drivers/display/ili_9341.c **** 
 157:./drivers/display/ili_9341.c ****  	LCD_REG  = 0x26;    //Gamma curve selected
 158:./drivers/display/ili_9341.c **** 	LCD_DATA = 0x01;
 159:./drivers/display/ili_9341.c **** 
 160:./drivers/display/ili_9341.c ****  	LCD_REG  = 0xE0;    //Set Gamma
 161:./drivers/display/ili_9341.c **** 	LCD_DATA = 0x0F;
 162:./drivers/display/ili_9341.c **** 	LCD_DATA = 0x3F;
 163:./drivers/display/ili_9341.c **** 	LCD_DATA = 0x2F;
 164:./drivers/display/ili_9341.c **** 	LCD_DATA = 0x0C;
 165:./drivers/display/ili_9341.c **** 	LCD_DATA = 0x10;
 166:./drivers/display/ili_9341.c **** 	LCD_DATA = 0x0A;
 167:./drivers/display/ili_9341.c **** 	LCD_DATA = 0x53;
 168:./drivers/display/ili_9341.c **** 	LCD_DATA = 0XD5;
 169:./drivers/display/ili_9341.c **** 	LCD_DATA = 0x40;
 170:./drivers/display/ili_9341.c **** 	LCD_DATA = 0x0A;
 171:./drivers/display/ili_9341.c **** 	LCD_DATA = 0x13;
 172:./drivers/display/ili_9341.c **** 	LCD_DATA = 0x03;
 173:./drivers/display/ili_9341.c **** 	LCD_DATA = 0x08;
 174:./drivers/display/ili_9341.c **** 	LCD_DATA = 0x03;
 175:./drivers/display/ili_9341.c **** 	LCD_DATA = 0x00;
 176:./drivers/display/ili_9341.c **** 
 177:./drivers/display/ili_9341.c ****  	LCD_REG  = 0XE1;    //Set Gamma
 178:./drivers/display/ili_9341.c **** 	LCD_DATA = 0x00;
 179:./drivers/display/ili_9341.c **** 	LCD_DATA = 0x00;
 180:./drivers/display/ili_9341.c **** 	LCD_DATA = 0x10;
 181:./drivers/display/ili_9341.c **** 	LCD_DATA = 0x03;
 182:./drivers/display/ili_9341.c **** 	LCD_DATA = 0x0F;
 183:./drivers/display/ili_9341.c **** 	LCD_DATA = 0x05;
 184:./drivers/display/ili_9341.c **** 	LCD_DATA = 0x2C;
 185:./drivers/display/ili_9341.c **** 	LCD_DATA = 0xA2;
 186:./drivers/display/ili_9341.c **** 	LCD_DATA = 0x3F;
 187:./drivers/display/ili_9341.c **** 	LCD_DATA = 0x05;
 188:./drivers/display/ili_9341.c **** 	LCD_DATA = 0x0E;
 189:./drivers/display/ili_9341.c **** 	LCD_DATA = 0x0C;
 190:./drivers/display/ili_9341.c **** 	LCD_DATA = 0x37;
 191:./drivers/display/ili_9341.c **** 	LCD_DATA = 0x3C;
 192:./drivers/display/ili_9341.c **** 	LCD_DATA = 0x0F;
 193:./drivers/display/ili_9341.c **** 
 194:./drivers/display/ili_9341.c **** 	LCD_REG  = EXIT_SLEEP_MODE;    //Exit Sleep
 195:./drivers/display/ili_9341.c **** 	tft_delay(50000);
 196:./drivers/display/ili_9341.c ****  	LCD_REG  = 0x29;    //Display on
 197:./drivers/display/ili_9341.c **** 	tft_delay(50000);
 198:./drivers/display/ili_9341.c **** 
 199:./drivers/display/ili_9341.c **** 
ARM GAS  C:\cygwin\tmp\ccx6LPCH.s 			page 6


 200:./drivers/display/ili_9341.c **** 	/* INIT FOR NHD-2.4-240320SF-CTXI-F1
 201:./drivers/display/ili_9341.c **** 	// from NHD-2.4-240320SF-CTXI-F1.pdf
 202:./drivers/display/ili_9341.c **** 	LCD_REG = DISPLAY_OFF;
 203:./drivers/display/ili_9341.c **** 	LCD_REG = EXIT_SLEEP_MODE;
 204:./drivers/display/ili_9341.c **** 	LCD_DATA = 0x00;
 205:./drivers/display/ili_9341.c **** 	tft_delay(50000);
 206:./drivers/display/ili_9341.c **** 
 207:./drivers/display/ili_9341.c **** 	LCD_REG = POWER_CONTROL_A;
 208:./drivers/display/ili_9341.c **** 	LCD_DATA = 0x39; //always 0x39
 209:./drivers/display/ili_9341.c **** 	LCD_DATA = 0x2C; //always 0x2C
 210:./drivers/display/ili_9341.c **** 	LCD_DATA = 0x00; //always 0x00
 211:./drivers/display/ili_9341.c **** 	LCD_DATA = 0x34; //Vcore = 1.6V
 212:./drivers/display/ili_9341.c **** 	LCD_DATA = 0x02; //DDVDH = 5.6V
 213:./drivers/display/ili_9341.c **** 	tft_delay(50000);
 214:./drivers/display/ili_9341.c **** 
 215:./drivers/display/ili_9341.c **** 	LCD_REG = POWER_CONTROL_B;
 216:./drivers/display/ili_9341.c **** 	LCD_DATA = 0x00; //always 0x00
 217:./drivers/display/ili_9341.c **** 	LCD_DATA = 0x81; //PCEQ off
 218:./drivers/display/ili_9341.c **** 	LCD_DATA = 0x30; //ESD protection
 219:./drivers/display/ili_9341.c **** 	tft_delay(50000);
 220:./drivers/display/ili_9341.c **** 
 221:./drivers/display/ili_9341.c **** 	LCD_REG = DRIVER_TIMING_CTRL_A; //Driver timing control A
 222:./drivers/display/ili_9341.c **** 	LCD_DATA = 0x85; //non-overlap
 223:./drivers/display/ili_9341.c **** 	LCD_DATA = 0x01; //EQ timing
 224:./drivers/display/ili_9341.c **** 	LCD_DATA = 0x79; //Pre-charge timing
 225:./drivers/display/ili_9341.c **** 	tft_delay(50000);
 226:./drivers/display/ili_9341.c **** 
 227:./drivers/display/ili_9341.c **** 	LCD_REG = DRIVER_TIMING_CTRL_B; //Driver timing control B
 228:./drivers/display/ili_9341.c **** 	LCD_DATA = 0x00; //Gate driver timing
 229:./drivers/display/ili_9341.c **** 	LCD_DATA = 0x00; //always 0x00
 230:./drivers/display/ili_9341.c **** 	tft_delay(50000);
 231:./drivers/display/ili_9341.c **** 
 232:./drivers/display/ili_9341.c **** 	LCD_REG = POWER_ON_SEQUENCE_CONTROL; //Power-On sequence control
 233:./drivers/display/ili_9341.c **** 	LCD_DATA = 0x64; //soft start
 234:./drivers/display/ili_9341.c **** 	LCD_DATA = 0x03; //power on sequence
 235:./drivers/display/ili_9341.c **** 	LCD_DATA = 0x12; //power on sequence
 236:./drivers/display/ili_9341.c **** 	LCD_DATA = 0x81; //DDVDH enhance on
 237:./drivers/display/ili_9341.c **** 	tft_delay(50000);
 238:./drivers/display/ili_9341.c **** 
 239:./drivers/display/ili_9341.c **** 	LCD_REG = PUMP_RATIO_CONTROL; //Pump ratio control
 240:./drivers/display/ili_9341.c **** 	LCD_DATA = 0x20; //DDVDH=2xVCI
 241:./drivers/display/ili_9341.c **** 	tft_delay(50000);
 242:./drivers/display/ili_9341.c **** 
 243:./drivers/display/ili_9341.c **** 	LCD_REG = POWER_CONTROL_1; //power control 1
 244:./drivers/display/ili_9341.c **** 	LCD_DATA = 0x26;
 245:./drivers/display/ili_9341.c **** 	LCD_DATA = 0x04; //second parameter for ILI9340 (ignored by ILI9341)
 246:./drivers/display/ili_9341.c **** 	tft_delay(50000);
 247:./drivers/display/ili_9341.c **** 
 248:./drivers/display/ili_9341.c **** 	LCD_REG = POWER_CONTROL_2; //power control 2
 249:./drivers/display/ili_9341.c **** 	LCD_DATA = 0x11;
 250:./drivers/display/ili_9341.c **** 	tft_delay(50000);
 251:./drivers/display/ili_9341.c **** 
 252:./drivers/display/ili_9341.c **** 	LCD_REG = VCOM_CONTROL_1; //VCOM control 1
 253:./drivers/display/ili_9341.c **** 	LCD_DATA = 0x35;
 254:./drivers/display/ili_9341.c **** 	LCD_DATA = 0x3E;
 255:./drivers/display/ili_9341.c **** 	tft_delay(50000);
 256:./drivers/display/ili_9341.c **** 
ARM GAS  C:\cygwin\tmp\ccx6LPCH.s 			page 7


 257:./drivers/display/ili_9341.c **** 	LCD_REG = VCOM_CONTROL_2; //VCOM control 2
 258:./drivers/display/ili_9341.c **** 	LCD_DATA = 0xBE;
 259:./drivers/display/ili_9341.c **** 	tft_delay(50000);
 260:./drivers/display/ili_9341.c **** 
 261:./drivers/display/ili_9341.c **** 	// MADCTL
 262:./drivers/display/ili_9341.c **** 	LCD_REG = MEMORY_ACCESS_CONTROL; //memory access control = BGR
 263:./drivers/display/ili_9341.c **** 	*/
 264:./drivers/display/ili_9341.c **** 	/*
 265:./drivers/display/ili_9341.c **** 	 * 36h MADCTL (Memory Access Control)
 266:./drivers/display/ili_9341.c **** 	 * D7 D6 D5 D4  D3 D2 D1 D0 HEX
 267:./drivers/display/ili_9341.c **** 	 *  0  0  1  1   0  1  1  0 36h
 268:./drivers/display/ili_9341.c **** 	 * MY MX MV ML BGR MH  0  0 00
 269:./drivers/display/ili_9341.c **** 	 * MY -> Row address order
 270:./drivers/display/ili_9341.c **** 	 * MX -> Column address order
 271:./drivers/display/ili_9341.c **** 	 * MV -> Row/Column exchange
 272:./drivers/display/ili_9341.c **** 	 *
 273:./drivers/display/ili_9341.c **** 	 * LCD_DATA = 0x88;
 274:./drivers/display/ili_9341.c **** 	 *  +------+
 275:./drivers/display/ili_9341.c **** 	 *  |      |
 276:./drivers/display/ili_9341.c **** 	 *  |      |
 277:./drivers/display/ili_9341.c **** 	 * 0+------+
 278:./drivers/display/ili_9341.c **** 	 *  0|TAIL|
 279:./drivers/display/ili_9341.c **** 	 * Linksonder naar boven
 280:./drivers/display/ili_9341.c **** 	 *
 281:./drivers/display/ili_9341.c **** 	 * LCD_DATA = 0x48;
 282:./drivers/display/ili_9341.c **** 	 *         0
 283:./drivers/display/ili_9341.c **** 	 *  +------+0
 284:./drivers/display/ili_9341.c **** 	 *  |      |
 285:./drivers/display/ili_9341.c **** 	 *  |      |
 286:./drivers/display/ili_9341.c **** 	 *  +------+
 287:./drivers/display/ili_9341.c **** 	 *   |TAIL|
 288:./drivers/display/ili_9341.c **** 	 * Rechts boven naar beneden
 289:./drivers/display/ili_9341.c **** 	 *
 290:./drivers/display/ili_9341.c **** 	 * LCD_DATA = 0x08;
 291:./drivers/display/ili_9341.c **** 	 *  0
 292:./drivers/display/ili_9341.c **** 	 * 0+------+
 293:./drivers/display/ili_9341.c **** 	 *  |      |
 294:./drivers/display/ili_9341.c **** 	 *  |      |
 295:./drivers/display/ili_9341.c **** 	 *  +------+
 296:./drivers/display/ili_9341.c **** 	 *   |TAIL|
 297:./drivers/display/ili_9341.c **** 	 *  Links boven naar beneden
 298:./drivers/display/ili_9341.c **** 	 */
 299:./drivers/display/ili_9341.c **** 	/*
 300:./drivers/display/ili_9341.c **** 	LCD_DATA = ILI9341_MADCTL_BGR | ILI9341_MADCTL_ML; // BGR order
 301:./drivers/display/ili_9341.c **** 
 302:./drivers/display/ili_9341.c **** 	tft_delay(50000);
 303:./drivers/display/ili_9341.c **** 
 304:./drivers/display/ili_9341.c **** 	LCD_REG = FRAME_RATE_CONTROL; //frame rate control
 305:./drivers/display/ili_9341.c **** 	LCD_DATA = 0x00;
 306:./drivers/display/ili_9341.c **** 	LCD_DATA = 0x10;
 307:./drivers/display/ili_9341.c **** 	tft_delay(50000);
 308:./drivers/display/ili_9341.c **** 
 309:./drivers/display/ili_9341.c **** 	// adafruit based
 310:./drivers/display/ili_9341.c **** 	LCD_REG = ENTRY_MODE_SET;
 311:./drivers/display/ili_9341.c **** 	LCD_DATA = 0x07;
 312:./drivers/display/ili_9341.c **** 	// end adafruit added
 313:./drivers/display/ili_9341.c **** 	tft_delay(50000);
ARM GAS  C:\cygwin\tmp\ccx6LPCH.s 			page 8


 314:./drivers/display/ili_9341.c **** 
 315:./drivers/display/ili_9341.c **** 	LCD_REG = DISPLAY_FUNCTION_CONTROL; //display function control
 316:./drivers/display/ili_9341.c **** 	LCD_DATA = 0x0A;
 317:./drivers/display/ili_9341.c **** 	LCD_DATA = 0xA2;
 318:./drivers/display/ili_9341.c **** 	tft_delay(50000);
 319:./drivers/display/ili_9341.c **** 
 320:./drivers/display/ili_9341.c **** 	LCD_REG = PIXEL_FORMAT_SET; //pixel format = 16 bit per pixel
 321:./drivers/display/ili_9341.c **** 	LCD_DATA = 0x55;
 322:./drivers/display/ili_9341.c **** 	tft_delay(50000);
 323:./drivers/display/ili_9341.c **** 
 324:./drivers/display/ili_9341.c **** 	LCD_REG = 0x00F2; //3G Gamma control
 325:./drivers/display/ili_9341.c **** 	LCD_DATA = 0x02; //off
 326:./drivers/display/ili_9341.c **** 	tft_delay(50000);
 327:./drivers/display/ili_9341.c **** 
 328:./drivers/display/ili_9341.c **** 	LCD_REG = GAMMA_SET; //Gamma curve 3
 329:./drivers/display/ili_9341.c **** 	LCD_DATA = 0x01;
 330:./drivers/display/ili_9341.c **** 	tft_delay(50000);
 331:./drivers/display/ili_9341.c **** 
 332:./drivers/display/ili_9341.c **** 	LCD_REG = COLUMN_ADDRESS_SET; //column address set
 333:./drivers/display/ili_9341.c **** 	LCD_DATA = 0x00;
 334:./drivers/display/ili_9341.c **** 	LCD_DATA = 0x00; //start 0x0000
 335:./drivers/display/ili_9341.c **** 	LCD_DATA = 0x00;
 336:./drivers/display/ili_9341.c **** 	LCD_DATA = 0xEF; //end 0x00EF = 239
 337:./drivers/display/ili_9341.c **** 	tft_delay(50000);
 338:./drivers/display/ili_9341.c **** 
 339:./drivers/display/ili_9341.c **** 	LCD_REG = PAGE_ADDRESS_SET; //page address set
 340:./drivers/display/ili_9341.c **** 	LCD_DATA = 0x00;
 341:./drivers/display/ili_9341.c **** 	LCD_DATA = 0x00; //start 0x0000
 342:./drivers/display/ili_9341.c **** 	LCD_DATA = 0x01;
 343:./drivers/display/ili_9341.c **** 	LCD_DATA = 0x3F; //end 0x013F 319
 344:./drivers/display/ili_9341.c **** 	tft_delay(50000);
 345:./drivers/display/ili_9341.c **** 
 346:./drivers/display/ili_9341.c **** 	LCD_REG = DISPLAY_ON;
 347:./drivers/display/ili_9341.c **** 
 348:./drivers/display/ili_9341.c **** 	tft_delay(50000);
 349:./drivers/display/ili_9341.c **** 
 350:./drivers/display/ili_9341.c **** 	LCD_REG = MEMORY_WRITE;
 351:./drivers/display/ili_9341.c **** 	*/
 352:./drivers/display/ili_9341.c **** 
 353:./drivers/display/ili_9341.c **** 
 354:./drivers/display/ili_9341.c **** }
 355:./drivers/display/ili_9341.c **** 
 356:./drivers/display/ili_9341.c **** void tft_delay (volatile uint32_t count){
  87              		.loc 1 356 0
  88              		.cfi_startproc
  89              		@ args = 0, pretend = 0, frame = 8
  90              		@ frame_needed = 0, uses_anonymous_args = 0
  91              		@ link register save eliminated.
  92              	.LVL0:
  93 0000 82B0     		sub	sp, sp, #8	@,,
  94              		.cfi_def_cfa_offset 8
  95 0002 0190     		str	r0, [sp, #4]	@ count, count
  96              	.L2:
 357:./drivers/display/ili_9341.c **** 	while (count--) {
  97              		.loc 1 357 0 discriminator 1
  98 0004 019B     		ldr	r3, [sp, #4]	@ D.8489, count
  99 0006 5A1E     		subs	r2, r3, #1	@ D.8489, D.8489,
ARM GAS  C:\cygwin\tmp\ccx6LPCH.s 			page 9


 100 0008 0192     		str	r2, [sp, #4]	@ D.8489, count
 101 000a 002B     		cmp	r3, #0	@ D.8489
 102 000c FAD1     		bne	.L2	@
 358:./drivers/display/ili_9341.c **** 	}
 359:./drivers/display/ili_9341.c **** }
 103              		.loc 1 359 0
 104 000e 02B0     		add	sp, sp, #8	@,,
 105              		.cfi_def_cfa_offset 0
 106              		@ sp needed	@
 107 0010 7047     		bx	lr	@
 108              		.cfi_endproc
 109              	.LFE124:
 110              		.size	tft_delay, .-tft_delay
 111              		.section	.text.init_ili9341,"ax",%progbits
 112              		.align	1
 113              		.global	init_ili9341
 114              		.thumb
 115              		.thumb_func
 116              		.type	init_ili9341, %function
 117              	init_ili9341:
 118              	.LFB123:
  86:./drivers/display/ili_9341.c **** 
 119              		.loc 1 86 0
 120              		.cfi_startproc
 121              		@ args = 0, pretend = 0, frame = 0
 122              		@ frame_needed = 0, uses_anonymous_args = 0
 123 0000 2DE9F84F 		push	{r3, r4, r5, r6, r7, r8, r9, r10, fp, lr}	@
 124              		.cfi_def_cfa_offset 40
 125              		.cfi_offset 3, -40
 126              		.cfi_offset 4, -36
 127              		.cfi_offset 5, -32
 128              		.cfi_offset 6, -28
 129              		.cfi_offset 7, -24
 130              		.cfi_offset 8, -20
 131              		.cfi_offset 9, -16
 132              		.cfi_offset 10, -12
 133              		.cfi_offset 11, -8
 134              		.cfi_offset 14, -4
  88:./drivers/display/ili_9341.c **** 	tft_delay(50000);
 135              		.loc 1 88 0
 136 0004 4FF0C044 		mov	r4, #1610612736	@ tmp110,
 137 0008 1125     		movs	r5, #17	@ tmp112,
 138 000a 2580     		strh	r5, [r4]	@ movhi	@ tmp112, MEM[(volatile short unsigned int *)1610612736B]
  89:./drivers/display/ili_9341.c **** 
 139              		.loc 1 89 0
 140 000c 4CF25030 		movw	r0, #50000	@,
 141 0010 FFF7FEFF 		bl	tft_delay	@
 142              	.LVL1:
  91:./drivers/display/ili_9341.c **** 	LCD_DATA = 0x00;
 143              		.loc 1 91 0
 144 0014 CF23     		movs	r3, #207	@ tmp115,
 145 0016 2380     		strh	r3, [r4]	@ movhi	@ tmp115, MEM[(volatile short unsigned int *)1610612736B]
  92:./drivers/display/ili_9341.c **** 	LCD_DATA = 0xc3;
 146              		.loc 1 92 0
 147 0018 594B     		ldr	r3, .L6	@ tmp116,
 148 001a 0022     		movs	r2, #0	@ tmp118,
  93:./drivers/display/ili_9341.c **** 	LCD_DATA = 0X30;
ARM GAS  C:\cygwin\tmp\ccx6LPCH.s 			page 10


 149              		.loc 1 93 0
 150 001c C321     		movs	r1, #195	@ tmp121,
  92:./drivers/display/ili_9341.c **** 	LCD_DATA = 0xc3;
 151              		.loc 1 92 0
 152 001e 1A80     		strh	r2, [r3]	@ movhi	@ tmp118, MEM[(volatile short unsigned int *)1611661312B]
  94:./drivers/display/ili_9341.c **** 
 153              		.loc 1 94 0
 154 0020 4FF0300E 		mov	lr, #48	@ tmp124,
  93:./drivers/display/ili_9341.c **** 	LCD_DATA = 0X30;
 155              		.loc 1 93 0
 156 0024 1980     		strh	r1, [r3]	@ movhi	@ tmp121, MEM[(volatile short unsigned int *)1611661312B]
  96:./drivers/display/ili_9341.c **** 	LCD_DATA = 0x64;
 157              		.loc 1 96 0
 158 0026 ED21     		movs	r1, #237	@ tmp127,
  94:./drivers/display/ili_9341.c **** 
 159              		.loc 1 94 0
 160 0028 A3F800E0 		strh	lr, [r3]	@ movhi	@ tmp124, MEM[(volatile short unsigned int *)1611661312B]
  96:./drivers/display/ili_9341.c **** 	LCD_DATA = 0x64;
 161              		.loc 1 96 0
 162 002c 2180     		strh	r1, [r4]	@ movhi	@ tmp127, MEM[(volatile short unsigned int *)1610612736B]
  97:./drivers/display/ili_9341.c **** 	LCD_DATA = 0x03;
 163              		.loc 1 97 0
 164 002e 6421     		movs	r1, #100	@ tmp130,
 165 0030 1980     		strh	r1, [r3]	@ movhi	@ tmp130, MEM[(volatile short unsigned int *)1611661312B]
  99:./drivers/display/ili_9341.c **** 	LCD_DATA = 0X81;
 166              		.loc 1 99 0
 167 0032 1220     		movs	r0, #18	@ tmp136,
  98:./drivers/display/ili_9341.c **** 	LCD_DATA = 0X12;
 168              		.loc 1 98 0
 169 0034 0321     		movs	r1, #3	@ tmp133,
 170 0036 1980     		strh	r1, [r3]	@ movhi	@ tmp133, MEM[(volatile short unsigned int *)1611661312B]
  99:./drivers/display/ili_9341.c **** 	LCD_DATA = 0X81;
 171              		.loc 1 99 0
 172 0038 1880     		strh	r0, [r3]	@ movhi	@ tmp136, MEM[(volatile short unsigned int *)1611661312B]
 100:./drivers/display/ili_9341.c **** 
 173              		.loc 1 100 0
 174 003a 8120     		movs	r0, #129	@ tmp139,
 175 003c 1880     		strh	r0, [r3]	@ movhi	@ tmp139, MEM[(volatile short unsigned int *)1611661312B]
 102:./drivers/display/ili_9341.c **** 	LCD_DATA = 0x85;
 176              		.loc 1 102 0
 177 003e E820     		movs	r0, #232	@ tmp142,
 178 0040 2080     		strh	r0, [r4]	@ movhi	@ tmp142, MEM[(volatile short unsigned int *)1610612736B]
 103:./drivers/display/ili_9341.c **** 	LCD_DATA = 0x10;
 179              		.loc 1 103 0
 180 0042 8520     		movs	r0, #133	@ tmp145,
 181 0044 1880     		strh	r0, [r3]	@ movhi	@ tmp145, MEM[(volatile short unsigned int *)1611661312B]
 104:./drivers/display/ili_9341.c **** 	LCD_DATA = 0x79;
 182              		.loc 1 104 0
 183 0046 1026     		movs	r6, #16	@ tmp148,
 105:./drivers/display/ili_9341.c **** 
 184              		.loc 1 105 0
 185 0048 7920     		movs	r0, #121	@ tmp151,
 104:./drivers/display/ili_9341.c **** 	LCD_DATA = 0x79;
 186              		.loc 1 104 0
 187 004a 1E80     		strh	r6, [r3]	@ movhi	@ tmp148, MEM[(volatile short unsigned int *)1611661312B]
 105:./drivers/display/ili_9341.c **** 
 188              		.loc 1 105 0
ARM GAS  C:\cygwin\tmp\ccx6LPCH.s 			page 11


 189 004c 1880     		strh	r0, [r3]	@ movhi	@ tmp151, MEM[(volatile short unsigned int *)1611661312B]
 107:./drivers/display/ili_9341.c **** 	LCD_DATA = 0x39;
 190              		.loc 1 107 0
 191 004e CB20     		movs	r0, #203	@ tmp154,
 192 0050 2080     		strh	r0, [r4]	@ movhi	@ tmp154, MEM[(volatile short unsigned int *)1610612736B]
 108:./drivers/display/ili_9341.c **** 	LCD_DATA = 0x2C;
 193              		.loc 1 108 0
 194 0052 3920     		movs	r0, #57	@ tmp157,
 195 0054 1880     		strh	r0, [r3]	@ movhi	@ tmp157, MEM[(volatile short unsigned int *)1611661312B]
 109:./drivers/display/ili_9341.c **** 	LCD_DATA = 0x00;
 196              		.loc 1 109 0
 197 0056 4FF02C09 		mov	r9, #44	@ tmp160,
 111:./drivers/display/ili_9341.c **** 	LCD_DATA = 0x02;
 198              		.loc 1 111 0
 199 005a 3420     		movs	r0, #52	@ tmp166,
 109:./drivers/display/ili_9341.c **** 	LCD_DATA = 0x00;
 200              		.loc 1 109 0
 201 005c A3F80090 		strh	r9, [r3]	@ movhi	@ tmp160, MEM[(volatile short unsigned int *)1611661312B]
 110:./drivers/display/ili_9341.c **** 	LCD_DATA = 0x34;
 202              		.loc 1 110 0
 203 0060 1A80     		strh	r2, [r3]	@ movhi	@ tmp118, MEM[(volatile short unsigned int *)1611661312B]
 111:./drivers/display/ili_9341.c **** 	LCD_DATA = 0x02;
 204              		.loc 1 111 0
 205 0062 1880     		strh	r0, [r3]	@ movhi	@ tmp166, MEM[(volatile short unsigned int *)1611661312B]
 112:./drivers/display/ili_9341.c **** 
 206              		.loc 1 112 0
 207 0064 0220     		movs	r0, #2	@ tmp169,
 208 0066 1880     		strh	r0, [r3]	@ movhi	@ tmp169, MEM[(volatile short unsigned int *)1611661312B]
 114:./drivers/display/ili_9341.c **** 	LCD_DATA = 0x20;
 209              		.loc 1 114 0
 210 0068 F720     		movs	r0, #247	@ tmp172,
 211 006a 2080     		strh	r0, [r4]	@ movhi	@ tmp172, MEM[(volatile short unsigned int *)1610612736B]
 117:./drivers/display/ili_9341.c **** 	LCD_DATA = 0x00;
 212              		.loc 1 117 0
 213 006c EA27     		movs	r7, #234	@ tmp178,
 115:./drivers/display/ili_9341.c **** 
 214              		.loc 1 115 0
 215 006e 2020     		movs	r0, #32	@ tmp175,
 216 0070 1880     		strh	r0, [r3]	@ movhi	@ tmp175, MEM[(volatile short unsigned int *)1611661312B]
 117:./drivers/display/ili_9341.c **** 	LCD_DATA = 0x00;
 217              		.loc 1 117 0
 218 0072 2780     		strh	r7, [r4]	@ movhi	@ tmp178, MEM[(volatile short unsigned int *)1610612736B]
 121:./drivers/display/ili_9341.c **** 	LCD_DATA = 0x22;   	//VRH[5:0]
 219              		.loc 1 121 0
 220 0074 C027     		movs	r7, #192	@ tmp187,
 118:./drivers/display/ili_9341.c **** 	LCD_DATA = 0x00;
 221              		.loc 1 118 0
 222 0076 1A80     		strh	r2, [r3]	@ movhi	@ tmp118, MEM[(volatile short unsigned int *)1611661312B]
 119:./drivers/display/ili_9341.c **** 
 223              		.loc 1 119 0
 224 0078 1A80     		strh	r2, [r3]	@ movhi	@ tmp118, MEM[(volatile short unsigned int *)1611661312B]
 121:./drivers/display/ili_9341.c **** 	LCD_DATA = 0x22;   	//VRH[5:0]
 225              		.loc 1 121 0
 226 007a 2780     		strh	r7, [r4]	@ movhi	@ tmp187, MEM[(volatile short unsigned int *)1610612736B]
 122:./drivers/display/ili_9341.c **** 
 227              		.loc 1 122 0
 228 007c 2227     		movs	r7, #34	@ tmp190,
ARM GAS  C:\cygwin\tmp\ccx6LPCH.s 			page 12


 229 007e 1F80     		strh	r7, [r3]	@ movhi	@ tmp190, MEM[(volatile short unsigned int *)1611661312B]
 124:./drivers/display/ili_9341.c **** 	LCD_DATA = 0x11;   	//SAP[2:0];BT[3:0]
 230              		.loc 1 124 0
 231 0080 C127     		movs	r7, #193	@ tmp193,
 232 0082 2780     		strh	r7, [r4]	@ movhi	@ tmp193, MEM[(volatile short unsigned int *)1610612736B]
 127:./drivers/display/ili_9341.c **** 	LCD_DATA = 0x3d;
 233              		.loc 1 127 0
 234 0084 C527     		movs	r7, #197	@ tmp199,
 125:./drivers/display/ili_9341.c **** 
 235              		.loc 1 125 0
 236 0086 1D80     		strh	r5, [r3]	@ movhi	@ tmp112, MEM[(volatile short unsigned int *)1611661312B]
 127:./drivers/display/ili_9341.c **** 	LCD_DATA = 0x3d;
 237              		.loc 1 127 0
 238 0088 2780     		strh	r7, [r4]	@ movhi	@ tmp199, MEM[(volatile short unsigned int *)1610612736B]
 128:./drivers/display/ili_9341.c **** 						//LCD_DataWrite_ILI9341(0x30);
 239              		.loc 1 128 0
 240 008a 3D27     		movs	r7, #61	@ tmp202,
 241 008c 1F80     		strh	r7, [r3]	@ movhi	@ tmp202, MEM[(volatile short unsigned int *)1611661312B]
 130:./drivers/display/ili_9341.c **** 
 242              		.loc 1 130 0
 243 008e 1880     		strh	r0, [r3]	@ movhi	@ tmp175, MEM[(volatile short unsigned int *)1611661312B]
 132:./drivers/display/ili_9341.c **** 						//LCD_DataWrite_ILI9341(0xBD);
 244              		.loc 1 132 0
 245 0090 C720     		movs	r0, #199	@ tmp208,
 246 0092 2080     		strh	r0, [r4]	@ movhi	@ tmp208, MEM[(volatile short unsigned int *)1610612736B]
 134:./drivers/display/ili_9341.c **** 
 247              		.loc 1 134 0
 248 0094 AA20     		movs	r0, #170	@ tmp211,
 249 0096 1880     		strh	r0, [r3]	@ movhi	@ tmp211, MEM[(volatile short unsigned int *)1611661312B]
 136:./drivers/display/ili_9341.c **** 	LCD_DATA = 0x88;
 250              		.loc 1 136 0
 251 0098 3620     		movs	r0, #54	@ tmp214,
 252 009a 2080     		strh	r0, [r4]	@ movhi	@ tmp214, MEM[(volatile short unsigned int *)1610612736B]
 137:./drivers/display/ili_9341.c **** 
 253              		.loc 1 137 0
 254 009c 8820     		movs	r0, #136	@ tmp217,
 255 009e 1880     		strh	r0, [r3]	@ movhi	@ tmp217, MEM[(volatile short unsigned int *)1611661312B]
 139:./drivers/display/ili_9341.c **** 	LCD_DATA = 0x55;
 256              		.loc 1 139 0
 257 00a0 3A20     		movs	r0, #58	@ tmp220,
 258 00a2 2080     		strh	r0, [r4]	@ movhi	@ tmp220, MEM[(volatile short unsigned int *)1610612736B]
 140:./drivers/display/ili_9341.c **** 
 259              		.loc 1 140 0
 260 00a4 5520     		movs	r0, #85	@ tmp223,
 261 00a6 1880     		strh	r0, [r3]	@ movhi	@ tmp223, MEM[(volatile short unsigned int *)1611661312B]
 142:./drivers/display/ili_9341.c **** 	LCD_DATA = 0x00;
 262              		.loc 1 142 0
 263 00a8 B120     		movs	r0, #177	@ tmp226,
 264 00aa 2080     		strh	r0, [r4]	@ movhi	@ tmp226, MEM[(volatile short unsigned int *)1610612736B]
 144:./drivers/display/ili_9341.c **** 
 265              		.loc 1 144 0
 266 00ac 4FF0130A 		mov	r10, #19	@ tmp232,
 146:./drivers/display/ili_9341.c **** 	LCD_DATA = 0x0A;
 267              		.loc 1 146 0
 268 00b0 B620     		movs	r0, #182	@ tmp235,
 143:./drivers/display/ili_9341.c **** 	LCD_DATA = 0x13;
 269              		.loc 1 143 0
ARM GAS  C:\cygwin\tmp\ccx6LPCH.s 			page 13


 270 00b2 1A80     		strh	r2, [r3]	@ movhi	@ tmp118, MEM[(volatile short unsigned int *)1611661312B]
 147:./drivers/display/ili_9341.c **** 	LCD_DATA = 0xA2;
 271              		.loc 1 147 0
 272 00b4 0A27     		movs	r7, #10	@ tmp238,
 144:./drivers/display/ili_9341.c **** 
 273              		.loc 1 144 0
 274 00b6 A3F800A0 		strh	r10, [r3]	@ movhi	@ tmp232, MEM[(volatile short unsigned int *)1611661312B]
 148:./drivers/display/ili_9341.c **** 
 275              		.loc 1 148 0
 276 00ba 4FF0A208 		mov	r8, #162	@ tmp241,
 146:./drivers/display/ili_9341.c **** 	LCD_DATA = 0x0A;
 277              		.loc 1 146 0
 278 00be 2080     		strh	r0, [r4]	@ movhi	@ tmp235, MEM[(volatile short unsigned int *)1610612736B]
 150:./drivers/display/ili_9341.c **** 	LCD_DATA = 0x01;
 279              		.loc 1 150 0
 280 00c0 F620     		movs	r0, #246	@ tmp244,
 147:./drivers/display/ili_9341.c **** 	LCD_DATA = 0xA2;
 281              		.loc 1 147 0
 282 00c2 1F80     		strh	r7, [r3]	@ movhi	@ tmp238, MEM[(volatile short unsigned int *)1611661312B]
 148:./drivers/display/ili_9341.c **** 
 283              		.loc 1 148 0
 284 00c4 A3F80080 		strh	r8, [r3]	@ movhi	@ tmp241, MEM[(volatile short unsigned int *)1611661312B]
 150:./drivers/display/ili_9341.c **** 	LCD_DATA = 0x01;
 285              		.loc 1 150 0
 286 00c8 2080     		strh	r0, [r4]	@ movhi	@ tmp244, MEM[(volatile short unsigned int *)1610612736B]
 151:./drivers/display/ili_9341.c **** 	LCD_DATA = 0x30;
 287              		.loc 1 151 0
 288 00ca 0120     		movs	r0, #1	@ tmp247,
 289 00cc 1880     		strh	r0, [r3]	@ movhi	@ tmp247, MEM[(volatile short unsigned int *)1611661312B]
 152:./drivers/display/ili_9341.c **** 
 290              		.loc 1 152 0
 291 00ce A3F800E0 		strh	lr, [r3]	@ movhi	@ tmp124, MEM[(volatile short unsigned int *)1611661312B]
 154:./drivers/display/ili_9341.c **** 	LCD_DATA = 0x00;
 292              		.loc 1 154 0
 293 00d2 4FF0F20E 		mov	lr, #242	@ tmp253,
 294 00d6 A4F800E0 		strh	lr, [r4]	@ movhi	@ tmp253, MEM[(volatile short unsigned int *)1610612736B]
 157:./drivers/display/ili_9341.c **** 	LCD_DATA = 0x01;
 295              		.loc 1 157 0
 296 00da 4FF0260E 		mov	lr, #38	@ tmp259,
 155:./drivers/display/ili_9341.c **** 
 297              		.loc 1 155 0
 298 00de 1A80     		strh	r2, [r3]	@ movhi	@ tmp118, MEM[(volatile short unsigned int *)1611661312B]
 157:./drivers/display/ili_9341.c **** 	LCD_DATA = 0x01;
 299              		.loc 1 157 0
 300 00e0 A4F800E0 		strh	lr, [r4]	@ movhi	@ tmp259, MEM[(volatile short unsigned int *)1610612736B]
 158:./drivers/display/ili_9341.c **** 
 301              		.loc 1 158 0
 302 00e4 1880     		strh	r0, [r3]	@ movhi	@ tmp247, MEM[(volatile short unsigned int *)1611661312B]
 160:./drivers/display/ili_9341.c **** 	LCD_DATA = 0x0F;
 303              		.loc 1 160 0
 304 00e6 E020     		movs	r0, #224	@ tmp265,
 305 00e8 2080     		strh	r0, [r4]	@ movhi	@ tmp265, MEM[(volatile short unsigned int *)1610612736B]
 162:./drivers/display/ili_9341.c **** 	LCD_DATA = 0x2F;
 306              		.loc 1 162 0
 307 00ea 4FF03F0C 		mov	ip, #63	@ tmp271,
 161:./drivers/display/ili_9341.c **** 	LCD_DATA = 0x3F;
 308              		.loc 1 161 0
ARM GAS  C:\cygwin\tmp\ccx6LPCH.s 			page 14


 309 00ee 0F20     		movs	r0, #15	@ tmp268,
 163:./drivers/display/ili_9341.c **** 	LCD_DATA = 0x0C;
 310              		.loc 1 163 0
 311 00f0 4FF02F0E 		mov	lr, #47	@ tmp274,
 161:./drivers/display/ili_9341.c **** 	LCD_DATA = 0x3F;
 312              		.loc 1 161 0
 313 00f4 1880     		strh	r0, [r3]	@ movhi	@ tmp268, MEM[(volatile short unsigned int *)1611661312B]
 167:./drivers/display/ili_9341.c **** 	LCD_DATA = 0XD5;
 314              		.loc 1 167 0
 315 00f6 4FF0530B 		mov	fp, #83	@ tmp286,
 162:./drivers/display/ili_9341.c **** 	LCD_DATA = 0x2F;
 316              		.loc 1 162 0
 317 00fa A3F800C0 		strh	ip, [r3]	@ movhi	@ tmp271, MEM[(volatile short unsigned int *)1611661312B]
 163:./drivers/display/ili_9341.c **** 	LCD_DATA = 0x0C;
 318              		.loc 1 163 0
 319 00fe A3F800E0 		strh	lr, [r3]	@ movhi	@ tmp274, MEM[(volatile short unsigned int *)1611661312B]
 164:./drivers/display/ili_9341.c **** 	LCD_DATA = 0x10;
 320              		.loc 1 164 0
 321 0102 4FF00C0E 		mov	lr, #12	@ tmp277,
 322 0106 A3F800E0 		strh	lr, [r3]	@ movhi	@ tmp277, MEM[(volatile short unsigned int *)1611661312B]
 165:./drivers/display/ili_9341.c **** 	LCD_DATA = 0x0A;
 323              		.loc 1 165 0
 324 010a 1E80     		strh	r6, [r3]	@ movhi	@ tmp148, MEM[(volatile short unsigned int *)1611661312B]
 166:./drivers/display/ili_9341.c **** 	LCD_DATA = 0x53;
 325              		.loc 1 166 0
 326 010c 1F80     		strh	r7, [r3]	@ movhi	@ tmp238, MEM[(volatile short unsigned int *)1611661312B]
 167:./drivers/display/ili_9341.c **** 	LCD_DATA = 0XD5;
 327              		.loc 1 167 0
 328 010e A3F800B0 		strh	fp, [r3]	@ movhi	@ tmp286, MEM[(volatile short unsigned int *)1611661312B]
 168:./drivers/display/ili_9341.c **** 	LCD_DATA = 0x40;
 329              		.loc 1 168 0
 330 0112 4FF0D50B 		mov	fp, #213	@ tmp289,
 331 0116 A3F800B0 		strh	fp, [r3]	@ movhi	@ tmp289, MEM[(volatile short unsigned int *)1611661312B]
 169:./drivers/display/ili_9341.c **** 	LCD_DATA = 0x0A;
 332              		.loc 1 169 0
 333 011a 4FF0400B 		mov	fp, #64	@ tmp292,
 334 011e A3F800B0 		strh	fp, [r3]	@ movhi	@ tmp292, MEM[(volatile short unsigned int *)1611661312B]
 170:./drivers/display/ili_9341.c **** 	LCD_DATA = 0x13;
 335              		.loc 1 170 0
 336 0122 1F80     		strh	r7, [r3]	@ movhi	@ tmp238, MEM[(volatile short unsigned int *)1611661312B]
 173:./drivers/display/ili_9341.c **** 	LCD_DATA = 0x03;
 337              		.loc 1 173 0
 338 0124 0827     		movs	r7, #8	@ tmp304,
 171:./drivers/display/ili_9341.c **** 	LCD_DATA = 0x03;
 339              		.loc 1 171 0
 340 0126 A3F800A0 		strh	r10, [r3]	@ movhi	@ tmp232, MEM[(volatile short unsigned int *)1611661312B]
 172:./drivers/display/ili_9341.c **** 	LCD_DATA = 0x08;
 341              		.loc 1 172 0
 342 012a 1980     		strh	r1, [r3]	@ movhi	@ tmp133, MEM[(volatile short unsigned int *)1611661312B]
 173:./drivers/display/ili_9341.c **** 	LCD_DATA = 0x03;
 343              		.loc 1 173 0
 344 012c 1F80     		strh	r7, [r3]	@ movhi	@ tmp304, MEM[(volatile short unsigned int *)1611661312B]
 177:./drivers/display/ili_9341.c **** 	LCD_DATA = 0x00;
 345              		.loc 1 177 0
 346 012e E127     		movs	r7, #225	@ tmp313,
 174:./drivers/display/ili_9341.c **** 	LCD_DATA = 0x00;
 347              		.loc 1 174 0
ARM GAS  C:\cygwin\tmp\ccx6LPCH.s 			page 15


 348 0130 1980     		strh	r1, [r3]	@ movhi	@ tmp133, MEM[(volatile short unsigned int *)1611661312B]
 175:./drivers/display/ili_9341.c **** 
 349              		.loc 1 175 0
 350 0132 1A80     		strh	r2, [r3]	@ movhi	@ tmp118, MEM[(volatile short unsigned int *)1611661312B]
 177:./drivers/display/ili_9341.c **** 	LCD_DATA = 0x00;
 351              		.loc 1 177 0
 352 0134 2780     		strh	r7, [r4]	@ movhi	@ tmp313, MEM[(volatile short unsigned int *)1610612736B]
 178:./drivers/display/ili_9341.c **** 	LCD_DATA = 0x00;
 353              		.loc 1 178 0
 354 0136 1A80     		strh	r2, [r3]	@ movhi	@ tmp118, MEM[(volatile short unsigned int *)1611661312B]
 179:./drivers/display/ili_9341.c **** 	LCD_DATA = 0x10;
 355              		.loc 1 179 0
 356 0138 1A80     		strh	r2, [r3]	@ movhi	@ tmp118, MEM[(volatile short unsigned int *)1611661312B]
 183:./drivers/display/ili_9341.c **** 	LCD_DATA = 0x2C;
 357              		.loc 1 183 0
 358 013a 0522     		movs	r2, #5	@ tmp331,
 180:./drivers/display/ili_9341.c **** 	LCD_DATA = 0x03;
 359              		.loc 1 180 0
 360 013c 1E80     		strh	r6, [r3]	@ movhi	@ tmp148, MEM[(volatile short unsigned int *)1611661312B]
 181:./drivers/display/ili_9341.c **** 	LCD_DATA = 0x0F;
 361              		.loc 1 181 0
 362 013e 1980     		strh	r1, [r3]	@ movhi	@ tmp133, MEM[(volatile short unsigned int *)1611661312B]
 182:./drivers/display/ili_9341.c **** 	LCD_DATA = 0x05;
 363              		.loc 1 182 0
 364 0140 1880     		strh	r0, [r3]	@ movhi	@ tmp268, MEM[(volatile short unsigned int *)1611661312B]
 183:./drivers/display/ili_9341.c **** 	LCD_DATA = 0x2C;
 365              		.loc 1 183 0
 366 0142 1A80     		strh	r2, [r3]	@ movhi	@ tmp331, MEM[(volatile short unsigned int *)1611661312B]
 184:./drivers/display/ili_9341.c **** 	LCD_DATA = 0xA2;
 367              		.loc 1 184 0
 368 0144 A3F80090 		strh	r9, [r3]	@ movhi	@ tmp160, MEM[(volatile short unsigned int *)1611661312B]
 185:./drivers/display/ili_9341.c **** 	LCD_DATA = 0x3F;
 369              		.loc 1 185 0
 370 0148 A3F80080 		strh	r8, [r3]	@ movhi	@ tmp241, MEM[(volatile short unsigned int *)1611661312B]
 186:./drivers/display/ili_9341.c **** 	LCD_DATA = 0x05;
 371              		.loc 1 186 0
 372 014c A3F800C0 		strh	ip, [r3]	@ movhi	@ tmp271, MEM[(volatile short unsigned int *)1611661312B]
 187:./drivers/display/ili_9341.c **** 	LCD_DATA = 0x0E;
 373              		.loc 1 187 0
 374 0150 1A80     		strh	r2, [r3]	@ movhi	@ tmp331, MEM[(volatile short unsigned int *)1611661312B]
 188:./drivers/display/ili_9341.c **** 	LCD_DATA = 0x0C;
 375              		.loc 1 188 0
 376 0152 0E22     		movs	r2, #14	@ tmp346,
 377 0154 1A80     		strh	r2, [r3]	@ movhi	@ tmp346, MEM[(volatile short unsigned int *)1611661312B]
 190:./drivers/display/ili_9341.c **** 	LCD_DATA = 0x3C;
 378              		.loc 1 190 0
 379 0156 3722     		movs	r2, #55	@ tmp352,
 189:./drivers/display/ili_9341.c **** 	LCD_DATA = 0x37;
 380              		.loc 1 189 0
 381 0158 A3F800E0 		strh	lr, [r3]	@ movhi	@ tmp277, MEM[(volatile short unsigned int *)1611661312B]
 190:./drivers/display/ili_9341.c **** 	LCD_DATA = 0x3C;
 382              		.loc 1 190 0
 383 015c 1A80     		strh	r2, [r3]	@ movhi	@ tmp352, MEM[(volatile short unsigned int *)1611661312B]
 191:./drivers/display/ili_9341.c **** 	LCD_DATA = 0x0F;
 384              		.loc 1 191 0
 385 015e 3C22     		movs	r2, #60	@ tmp355,
 386 0160 1A80     		strh	r2, [r3]	@ movhi	@ tmp355, MEM[(volatile short unsigned int *)1611661312B]
ARM GAS  C:\cygwin\tmp\ccx6LPCH.s 			page 16


 192:./drivers/display/ili_9341.c **** 
 387              		.loc 1 192 0
 388 0162 1880     		strh	r0, [r3]	@ movhi	@ tmp268, MEM[(volatile short unsigned int *)1611661312B]
 194:./drivers/display/ili_9341.c **** 	tft_delay(50000);
 389              		.loc 1 194 0
 390 0164 2580     		strh	r5, [r4]	@ movhi	@ tmp112, MEM[(volatile short unsigned int *)1610612736B]
 195:./drivers/display/ili_9341.c ****  	LCD_REG  = 0x29;    //Display on
 391              		.loc 1 195 0
 392 0166 4CF25030 		movw	r0, #50000	@,
 393 016a FFF7FEFF 		bl	tft_delay	@
 394              	.LVL2:
 196:./drivers/display/ili_9341.c **** 	tft_delay(50000);
 395              		.loc 1 196 0
 396 016e 2923     		movs	r3, #41	@ tmp364,
 397 0170 2380     		strh	r3, [r4]	@ movhi	@ tmp364, MEM[(volatile short unsigned int *)1610612736B]
 197:./drivers/display/ili_9341.c **** 
 398              		.loc 1 197 0
 399 0172 4CF25030 		movw	r0, #50000	@,
 354:./drivers/display/ili_9341.c **** 
 400              		.loc 1 354 0
 401 0176 BDE8F84F 		pop	{r3, r4, r5, r6, r7, r8, r9, r10, fp, lr}	@
 402              		.cfi_restore 14
 403              		.cfi_restore 11
 404              		.cfi_restore 10
 405              		.cfi_restore 9
 406              		.cfi_restore 8
 407              		.cfi_restore 7
 408              		.cfi_restore 6
 409              		.cfi_restore 5
 410              		.cfi_restore 4
 411              		.cfi_restore 3
 412              		.cfi_def_cfa_offset 0
 197:./drivers/display/ili_9341.c **** 
 413              		.loc 1 197 0
 414 017a FFF7FEBF 		b	tft_delay	@
 415              	.LVL3:
 416              	.L7:
 417 017e 00BF     		.align	2
 418              	.L6:
 419 0180 00001060 		.word	1611661312
 420              		.cfi_endproc
 421              	.LFE123:
 422              		.size	init_ili9341, .-init_ili9341
 423              		.text
 424              	.Letext0:
 425              		.file 2 "c:\\program files\\gcc-arm-none-eabi-4_9-2014\\arm-none-eabi\\include\\machine\\_default_
 426              		.file 3 "c:\\program files\\gcc-arm-none-eabi-4_9-2014\\arm-none-eabi\\include\\stdint.h"
 427              		.file 4 "../STM32Cube_FW_F4_V1.4.0/Drivers/CMSIS/Include/core_cm4.h"