ARM GAS  C:\cygwin\tmp\ccFPKl54.s 			page 1


   1              		.syntax unified
   2              		.cpu cortex-m4
   3              		.fpu softvfp
   4              		.eabi_attribute 20, 1	@ Tag_ABI_FP_denormal
   5              		.eabi_attribute 21, 1	@ Tag_ABI_FP_exceptions
   6              		.eabi_attribute 23, 3	@ Tag_ABI_FP_number_model
   7              		.eabi_attribute 24, 1	@ Tag_ABI_align8_needed
   8              		.eabi_attribute 25, 1	@ Tag_ABI_align8_preserved
   9              		.eabi_attribute 26, 1	@ Tag_ABI_enum_size
  10              		.eabi_attribute 30, 4	@ Tag_ABI_optimization_goals
  11              		.eabi_attribute 34, 1	@ Tag_CPU_unaligned_access
  12              		.eabi_attribute 18, 4	@ Tag_ABI_PCS_wchar_t
  13              		.file	"logger.c"
  14              	@ GNU C (GNU Tools for ARM Embedded Processors) version 4.9.3 20141119 (release) [ARM/embedded-4_9-
  15              	@	compiled by GNU C version 4.7.4, GMP version 4.3.2, MPFR version 2.4.2, MPC version 0.8.1
  16              	@ GGC heuristics: --param ggc-min-expand=100 --param ggc-min-heapsize=131072
  17              	@ options passed:  -I . -I Inc -I gui -I emWin -I emWin/config
  18              	@ -I freemodbus-v1.5.0/port -I freemodbus-v1.5.0/modbus/include
  19              	@ -I freemodbus-v1.5.0/modbus/ascii -I freemodbus-v1.5.0/modbus/rtu
  20              	@ -I ../STM32Cube_FW_F4_V1.4.0/Drivers/CMSIS/Include
  21              	@ -I ../STM32Cube_FW_F4_V1.4.0/Drivers/CMSIS/Device/ST/STM32F4xx/Include
  22              	@ -I ../STM32Cube_FW_F4_V1.4.0/Drivers/STM32F4xx_HAL_Driver/Inc
  23              	@ -I ../STM32Cube_FW_F4_V1.4.0/Drivers/CMSIS/Include
  24              	@ -I ../STM32Cube_FW_F4_V1.4.0/Middlewares/ST/STemWin/inc
  25              	@ -I ../STM32Cube_FW_F4_V1.4.0/Middlewares/Third_Party/FatFs/src
  26              	@ -I ../STM32Cube_FW_F4_V1.4.0/Middlewares/Third_Party/FatFs/src/drivers/sd
  27              	@ -I ./drivers/display -imultilib armv7e-m
  28              	@ -iprefix c:\program files\gcc-arm-none-eabi-4_9-2014\bin\../lib/gcc/arm-none-eabi/4.9.3/
  29              	@ -isysroot c:\program files\gcc-arm-none-eabi-4_9-2014\bin\../arm-none-eabi
  30              	@ -MD out/logger.d -MF out/logger.d -MP -MQ out/logger.o
  31              	@ -D__USES_INITFINI__ -D USE_HAL_DRIVER -D STM32F4XX -D HSE_VALUE=25000000
  32              	@ -D STM32F437xx -D USE_FULL_ASSERT -D __GNUC__ -D __VFP_FP__
  33              	@ -D ARM_MATH_CM4 -D LOG_INFO Src/logger.c -mcpu=cortex-m4 -mthumb
  34              	@ -auxbase-strip out/logger.o -g -ggdb3 -Os -Os -Wall -Wstrict-prototypes
  35              	@ -Wextra -std=gnu90 -ffunction-sections -fdata-sections -fverbose-asm
  36              	@ options enabled:  -faggressive-loop-optimizations -fauto-inc-dec
  37              	@ -fbranch-count-reg -fcaller-saves -fcombine-stack-adjustments -fcommon
  38              	@ -fcompare-elim -fcprop-registers -fcrossjumping -fcse-follow-jumps
  39              	@ -fdata-sections -fdefer-pop -fdelete-null-pointer-checks -fdevirtualize
  40              	@ -fdevirtualize-speculatively -fdwarf2-cfi-asm -fearly-inlining
  41              	@ -feliminate-unused-debug-types -fexpensive-optimizations
  42              	@ -fforward-propagate -ffunction-cse -ffunction-sections -fgcse -fgcse-lm
  43              	@ -fgnu-runtime -fgnu-unique -fguess-branch-probability
  44              	@ -fhoist-adjacent-loads -fident -fif-conversion -fif-conversion2
  45              	@ -findirect-inlining -finline -finline-atomics -finline-functions
  46              	@ -finline-functions-called-once -finline-small-functions -fipa-cp
  47              	@ -fipa-profile -fipa-pure-const -fipa-reference -fipa-sra
  48              	@ -fira-hoist-pressure -fira-share-save-slots -fira-share-spill-slots
  49              	@ -fisolate-erroneous-paths-dereference -fivopts -fkeep-static-consts
  50              	@ -fleading-underscore -fmath-errno -fmerge-constants -fmerge-debug-strings
  51              	@ -fomit-frame-pointer -foptimize-sibling-calls -fpartial-inlining
  52              	@ -fpeephole -fpeephole2 -fprefetch-loop-arrays -freg-struct-return
  53              	@ -freorder-blocks -freorder-functions -frerun-cse-after-loop
  54              	@ -fsched-critical-path-heuristic -fsched-dep-count-heuristic
  55              	@ -fsched-group-heuristic -fsched-interblock -fsched-last-insn-heuristic
  56              	@ -fsched-pressure -fsched-rank-heuristic -fsched-spec
  57              	@ -fsched-spec-insn-heuristic -fsched-stalled-insns-dep -fschedule-insns2
ARM GAS  C:\cygwin\tmp\ccFPKl54.s 			page 2


  58              	@ -fsection-anchors -fshow-column -fsigned-zeros -fsplit-ivs-in-unroller
  59              	@ -fsplit-wide-types -fstrict-aliasing -fstrict-overflow
  60              	@ -fstrict-volatile-bitfields -fsync-libcalls -fthread-jumps
  61              	@ -ftoplevel-reorder -ftrapping-math -ftree-bit-ccp -ftree-builtin-call-dce
  62              	@ -ftree-ccp -ftree-ch -ftree-coalesce-vars -ftree-copy-prop
  63              	@ -ftree-copyrename -ftree-cselim -ftree-dce -ftree-dominator-opts
  64              	@ -ftree-dse -ftree-forwprop -ftree-fre -ftree-loop-if-convert
  65              	@ -ftree-loop-im -ftree-loop-ivcanon -ftree-loop-optimize
  66              	@ -ftree-parallelize-loops= -ftree-phiprop -ftree-pre -ftree-pta
  67              	@ -ftree-reassoc -ftree-scev-cprop -ftree-sink -ftree-slsr -ftree-sra
  68              	@ -ftree-switch-conversion -ftree-tail-merge -ftree-ter -ftree-vrp
  69              	@ -funit-at-a-time -fvar-tracking -fvar-tracking-assignments -fverbose-asm
  70              	@ -fzero-initialized-in-bss -mlittle-endian -mlra
  71              	@ -mpic-data-is-text-relative -msched-prolog -mthumb -munaligned-access
  72              	@ -mvectorize-with-neon-quad
  73              	
  74              		.text
  75              	.Ltext0:
  76              		.cfi_sections	.debug_frame
  77              		.section	.text.__logger_info,"ax",%progbits
  78              		.align	1
  79              		.global	__logger_info
  80              		.thumb
  81              		.thumb_func
  82              		.type	__logger_info, %function
  83              	__logger_info:
  84              	.LFB123:
  85              		.file 1 "Src/logger.c"
   1:Src/logger.c  **** /**
   2:Src/logger.c  ****   ******************************************************************************
   3:Src/logger.c  ****   * @file    logger.c 
   4:Src/logger.c  ****   * @author  Multicalor
   5:Src/logger.c  ****   * @version V1.0.0
   6:Src/logger.c  ****   * @date    09-03-2015
   7:Src/logger.c  ****   * @brief   TimeStamped Logger
   8:Src/logger.c  **** 	@brief	Verventa 1.0.0
   9:Src/logger.c  ****   ******************************************************************************
  10:Src/logger.c  ****   * @attention
  11:Src/logger.c  ****   *
  12:Src/logger.c  ****   * 
  13:Src/logger.c  ****   *
  14:Src/logger.c  ****   * Redistribution and use in source and binary forms, with or without modification,
  15:Src/logger.c  ****   * are permitted provided that the following conditions are met:
  16:Src/logger.c  ****   *   1. Redistributions of source code must retain the above copyright notice,
  17:Src/logger.c  ****   *      this list of conditions and the following disclaimer.
  18:Src/logger.c  ****   *   2. Redistributions in binary form must reproduce the above copyright notice,
  19:Src/logger.c  ****   *      this list of conditions and the following disclaimer in the documentation
  20:Src/logger.c  ****   *      and/or other materials provided with the distribution.
  21:Src/logger.c  ****   *   3. Neither the name of Verventa nor the names of its contributors
  22:Src/logger.c  ****   *      may be used to endorse or promote products derived from this software
  23:Src/logger.c  ****   *      without specific prior written permission.
  24:Src/logger.c  ****   *		Verventa is copyrighted!
  25:Src/logger.c  ****   *
  26:Src/logger.c  ****   * THIS SOFTWARE IS PROVIDED BY THE COPYRIGHT HOLDERS AND CONTRIBUTORS "AS IS"
  27:Src/logger.c  ****   * AND ANY EXPRESS OR IMPLIED WARRANTIES, INCLUDING, BUT NOT LIMITED TO, THE
  28:Src/logger.c  ****   * IMPLIED WARRANTIES OF MERCHANTABILITY AND FITNESS FOR A PARTICULAR PURPOSE ARE
  29:Src/logger.c  ****   * DISCLAIMED. IN NO EVENT SHALL THE COPYRIGHT HOLDER OR CONTRIBUTORS BE LIABLE
ARM GAS  C:\cygwin\tmp\ccFPKl54.s 			page 3


  30:Src/logger.c  ****   * FOR ANY DIRECT, INDIRECT, INCIDENTAL, SPECIAL, EXEMPLARY, OR CONSEQUENTIAL
  31:Src/logger.c  ****   * DAMAGES (INCLUDING, BUT NOT LIMITED TO, PROCUREMENT OF SUBSTITUTE GOODS OR
  32:Src/logger.c  ****   * SERVICES; LOSS OF USE, DATA, OR PROFITS; OR BUSINESS INTERRUPTION) HOWEVER
  33:Src/logger.c  ****   * CAUSED AND ON ANY THEORY OF LIABILITY, WHETHER IN CONTRACT, STRICT LIABILITY,
  34:Src/logger.c  ****   * OR TORT (INCLUDING NEGLIGENCE OR OTHERWISE) ARISING IN ANY WAY OUT OF THE USE
  35:Src/logger.c  ****   * OF THIS SOFTWARE, EVEN IF ADVISED OF THE POSSIBILITY OF SUCH DAMAGE.
  36:Src/logger.c  ****   *
  37:Src/logger.c  ****   ******************************************************************************
  38:Src/logger.c  ****   */
  39:Src/logger.c  **** /* Includes ------------------------------------------------------------------*/
  40:Src/logger.c  **** #include "logger.h"
  41:Src/logger.c  **** 
  42:Src/logger.c  **** /* Static variables ----------------------------------------------------------*/
  43:Src/logger.c  **** static void create_timestamp(void);
  44:Src/logger.c  **** 
  45:Src/logger.c  **** /* Implements ----------------------------------------------------------------*/
  46:Src/logger.c  **** /**
  47:Src/logger.c  ****   * @brief  Log all info
  48:Src/logger.c  ****   * @param  *info string
  49:Src/logger.c  ****   *	@param	args
  50:Src/logger.c  ****   * @retval None
  51:Src/logger.c  ****   */
  52:Src/logger.c  **** void __logger_info(uint8_t *info, ...){	
  86              		.loc 1 52 0
  87              		.cfi_startproc
  88              		@ args = 4, pretend = 16, frame = 8
  89              		@ frame_needed = 0, uses_anonymous_args = 1
  90              	.LVL0:
  91 0000 0FB4     		push	{r0, r1, r2, r3}	@
  92              		.cfi_def_cfa_offset 16
  93              		.cfi_offset 0, -16
  94              		.cfi_offset 1, -12
  95              		.cfi_offset 2, -8
  96              		.cfi_offset 3, -4
  97 0002 13B5     		push	{r0, r1, r4, lr}	@
  98              		.cfi_def_cfa_offset 32
  99              		.cfi_offset 4, -24
 100              		.cfi_offset 14, -20
 101              		.loc 1 52 0
 102 0004 04AB     		add	r3, sp, #16	@ tmp114,,
  53:Src/logger.c  **** 	va_list arp;
  54:Src/logger.c  **** 	
  55:Src/logger.c  **** 	va_start(arp, info);
  56:Src/logger.c  **** 	
  57:Src/logger.c  **** 	f_printf(&MyFile, "%s: %d C\n", info, (uint8_t)va_arg(arp, int));
 103              		.loc 1 57 0
 104 0006 094C     		ldr	r4, .L2	@ tmp115,
  52:Src/logger.c  **** 	va_list arp;
 105              		.loc 1 52 0
 106 0008 53F8042B 		ldr	r2, [r3], #4	@ info, info
  55:Src/logger.c  **** 	
 107              		.loc 1 55 0
 108 000c 0193     		str	r3, [sp, #4]	@ tmp114, MEM[(struct  *)&arp].__ap
 109              		.loc 1 57 0
 110 000e 0849     		ldr	r1, .L2+4	@,
 111 0010 9DF81430 		ldrb	r3, [sp, #20]	@ zero_extendqisi2	@, MEM[(int *)_3]
 112 0014 2046     		mov	r0, r4	@, tmp115
ARM GAS  C:\cygwin\tmp\ccFPKl54.s 			page 4


 113 0016 FFF7FEFF 		bl	f_printf	@
 114              	.LVL1:
  58:Src/logger.c  **** 	
  59:Src/logger.c  **** 	va_end(arp);
  60:Src/logger.c  **** 	
  61:Src/logger.c  **** 	f_sync(&MyFile);
 115              		.loc 1 61 0
 116 001a 2046     		mov	r0, r4	@, tmp115
 117 001c FFF7FEFF 		bl	f_sync	@
 118              	.LVL2:
  62:Src/logger.c  **** }
 119              		.loc 1 62 0
 120 0020 02B0     		add	sp, sp, #8	@,,
 121              		.cfi_def_cfa_offset 24
 122              		@ sp needed	@
 123 0022 BDE81040 		pop	{r4, lr}	@
 124              		.cfi_restore 14
 125              		.cfi_restore 4
 126              		.cfi_def_cfa_offset 16
 127 0026 04B0     		add	sp, sp, #16	@,,
 128              		.cfi_restore 3
 129              		.cfi_restore 2
 130              		.cfi_restore 1
 131              		.cfi_restore 0
 132              		.cfi_def_cfa_offset 0
 133 0028 7047     		bx	lr	@
 134              	.L3:
 135 002a 00BF     		.align	2
 136              	.L2:
 137 002c 00000000 		.word	MyFile
 138 0030 00000000 		.word	.LC0
 139              		.cfi_endproc
 140              	.LFE123:
 141              		.size	__logger_info, .-__logger_info
 142              		.section	.text.create_logger,"ax",%progbits
 143              		.align	1
 144              		.global	create_logger
 145              		.thumb
 146              		.thumb_func
 147              		.type	create_logger, %function
 148              	create_logger:
 149              	.LFB124:
  63:Src/logger.c  **** 
  64:Src/logger.c  **** /**
  65:Src/logger.c  ****   * @brief  Create a logger
  66:Src/logger.c  ****   * @param  *filename -> long filename support Fatfs
  67:Src/logger.c  ****   * @retval None
  68:Src/logger.c  ****   */
  69:Src/logger.c  **** void create_logger(uint8_t *filename){
 150              		.loc 1 69 0
 151              		.cfi_startproc
 152              		@ args = 0, pretend = 0, frame = 0
 153              		@ frame_needed = 0, uses_anonymous_args = 0
 154              	.LVL3:
 155 0000 08B5     		push	{r3, lr}	@
 156              		.cfi_def_cfa_offset 8
 157              		.cfi_offset 3, -8
ARM GAS  C:\cygwin\tmp\ccFPKl54.s 			page 5


 158              		.cfi_offset 14, -4
 159              		.loc 1 69 0
 160 0002 0146     		mov	r1, r0	@ filename, filename
  70:Src/logger.c  **** 	if(f_open(&MyFile, filename, FA_CREATE_ALWAYS | FA_WRITE) != FR_OK){
 161              		.loc 1 70 0
 162 0004 0A22     		movs	r2, #10	@,
 163 0006 0748     		ldr	r0, .L10	@,
 164              	.LVL4:
 165 0008 FFF7FEFF 		bl	f_open	@
 166              	.LVL5:
 167 000c 08B1     		cbz	r0, .L5	@,
  71:Src/logger.c  **** 		Error_Handler();
 168              		.loc 1 71 0
 169 000e FFF7FEFF 		bl	Error_Handler	@
 170              	.LVL6:
 171              	.L5:
  72:Src/logger.c  **** 	}
  73:Src/logger.c  **** 	
  74:Src/logger.c  **** 	printf("File created\n");
 172              		.loc 1 74 0
 173 0012 0548     		ldr	r0, .L10+4	@,
 174 0014 FFF7FEFF 		bl	puts	@
 175              	.LVL7:
  75:Src/logger.c  **** 	
  76:Src/logger.c  **** 	f_sync(&MyFile);
 176              		.loc 1 76 0
 177 0018 0248     		ldr	r0, .L10	@,
  77:Src/logger.c  **** }...
 178              		.loc 1 77 0
 179 001a BDE80840 		pop	{r3, lr}	@
 180              		.cfi_restore 14
 181              		.cfi_restore 3
 182              		.cfi_def_cfa_offset 0
  76:Src/logger.c  **** 	f_sync(&MyFile);
 183              		.loc 1 76 0
 184 001e FFF7FEBF 		b	f_sync	@
 185              	.LVL8:
 186              	.L11:
 187 0022 00BF     		.align	2
 188              	.L10:
 189 0024 00000000 		.word	MyFile
 190 0028 0A000000 		.word	.LC1
 191              		.cfi_endproc
 192              	.LFE124:
 193              		.size	create_logger, .-create_logger
 194              		.comm	info,4,4
 195              		.comm	MyFile,556,4
 196              		.section	.rodata.str1.1,"aMS",%progbits,1
 197              	.LC0:
 198 0000 25733A20 		.ascii	"%s: %d C\012\000"
 198      25642043 
 198      0A00
 199              	.LC1:
 200 000a 46696C65 		.ascii	"File created\000"
 200      20637265 
 200      61746564 
 200      00
ARM GAS  C:\cygwin\tmp\ccFPKl54.s 			page 6


 201              		.text
 202              	.Letext0:
 203              		.file 2 "c:\\program files\\gcc-arm-none-eabi-4_9-2014\\arm-none-eabi\\include\\machine\\_default_
 204              		.file 3 "c:\\program files\\gcc-arm-none-eabi-4_9-2014\\arm-none-eabi\\include\\stdint.h"
 205              		.file 4 "../STM32Cube_FW_F4_V1.4.0/Middlewares/Third_Party/FatFs/src/integer.h"
 206              		.file 5 "../STM32Cube_FW_F4_V1.4.0/Middlewares/Third_Party/FatFs/src/ff.h"
 207              		.file 6 "c:\\program files\\gcc-arm-none-eabi-4_9-2014\\lib\\gcc\\arm-none-eabi\\4.9.3\\include\\s
 208              		.file 7 "../STM32Cube_FW_F4_V1.4.0/Drivers/CMSIS/Include/core_cm4.h"
 209              		.file 8 "Inc/logger.h"
 210              		.file 9 "<built-in>"
 211              		.file 10 "Inc/main.h"