ARM GAS  C:\cygwin\tmp\cczucU0R.s 			page 1


   1              		.syntax unified
   2              		.cpu cortex-m4
   3              		.fpu softvfp
   4              		.eabi_attribute 20, 1	@ Tag_ABI_FP_denormal
   5              		.eabi_attribute 21, 1	@ Tag_ABI_FP_exceptions
   6              		.eabi_attribute 23, 3	@ Tag_ABI_FP_number_model
   7              		.eabi_attribute 24, 1	@ Tag_ABI_align8_needed
   8              		.eabi_attribute 25, 1	@ Tag_ABI_align8_preserved
   9              		.eabi_attribute 26, 1	@ Tag_ABI_enum_size
  10              		.eabi_attribute 30, 4	@ Tag_ABI_optimization_goals
  11              		.eabi_attribute 34, 1	@ Tag_CPU_unaligned_access
  12              		.eabi_attribute 18, 4	@ Tag_ABI_PCS_wchar_t
  13              		.file	"mbfunccoils.c"
  14              	@ GNU C (GNU Tools for ARM Embedded Processors) version 4.9.3 20141119 (release) [ARM/embedded-4_9-
  15              	@	compiled by GNU C version 4.7.4, GMP version 4.3.2, MPFR version 2.4.2, MPC version 0.8.1
  16              	@ GGC heuristics: --param ggc-min-expand=100 --param ggc-min-heapsize=131072
  17              	@ options passed:  -I . -I Inc -I gui -I emWin -I emWin/config
  18              	@ -I freemodbus-v1.5.0/port -I freemodbus-v1.5.0/modbus/include
  19              	@ -I freemodbus-v1.5.0/modbus/ascii -I freemodbus-v1.5.0/modbus/rtu
  20              	@ -I ../STM32Cube_FW_F4_V1.4.0/Drivers/CMSIS/Include
  21              	@ -I ../STM32Cube_FW_F4_V1.4.0/Drivers/CMSIS/Device/ST/STM32F4xx/Include
  22              	@ -I ../STM32Cube_FW_F4_V1.4.0/Drivers/STM32F4xx_HAL_Driver/Inc
  23              	@ -I ../STM32Cube_FW_F4_V1.4.0/Drivers/CMSIS/Include
  24              	@ -I ../STM32Cube_FW_F4_V1.4.0/Middlewares/ST/STemWin/inc
  25              	@ -I ../STM32Cube_FW_F4_V1.4.0/Middlewares/Third_Party/FatFs/src
  26              	@ -I ../STM32Cube_FW_F4_V1.4.0/Middlewares/Third_Party/FatFs/src/drivers/sd
  27              	@ -I ./drivers/display -imultilib armv7e-m
  28              	@ -iprefix c:\program files\gcc-arm-none-eabi-4_9-2014\bin\../lib/gcc/arm-none-eabi/4.9.3/
  29              	@ -isysroot c:\program files\gcc-arm-none-eabi-4_9-2014\bin\../arm-none-eabi
  30              	@ -MD out/mbfunccoils.d -MF out/mbfunccoils.d -MP -MQ out/mbfunccoils.o
  31              	@ -D__USES_INITFINI__ -D USE_HAL_DRIVER -D STM32F4XX -D HSE_VALUE=25000000
  32              	@ -D STM32F437xx -D USE_FULL_ASSERT -D __GNUC__ -D __VFP_FP__
  33              	@ -D ARM_MATH_CM4 -D LOG_INFO
  34              	@ freemodbus-v1.5.0/modbus/functions/mbfunccoils.c -mcpu=cortex-m4 -mthumb
  35              	@ -auxbase-strip out/mbfunccoils.o -g -ggdb3 -Os -Os -Wall
  36              	@ -Wstrict-prototypes -Wextra -std=gnu90 -ffunction-sections
  37              	@ -fdata-sections -fverbose-asm
  38              	@ options enabled:  -faggressive-loop-optimizations -fauto-inc-dec
  39              	@ -fbranch-count-reg -fcaller-saves -fcombine-stack-adjustments -fcommon
  40              	@ -fcompare-elim -fcprop-registers -fcrossjumping -fcse-follow-jumps
  41              	@ -fdata-sections -fdefer-pop -fdelete-null-pointer-checks -fdevirtualize
  42              	@ -fdevirtualize-speculatively -fdwarf2-cfi-asm -fearly-inlining
  43              	@ -feliminate-unused-debug-types -fexpensive-optimizations
  44              	@ -fforward-propagate -ffunction-cse -ffunction-sections -fgcse -fgcse-lm
  45              	@ -fgnu-runtime -fgnu-unique -fguess-branch-probability
  46              	@ -fhoist-adjacent-loads -fident -fif-conversion -fif-conversion2
  47              	@ -findirect-inlining -finline -finline-atomics -finline-functions
  48              	@ -finline-functions-called-once -finline-small-functions -fipa-cp
  49              	@ -fipa-profile -fipa-pure-const -fipa-reference -fipa-sra
  50              	@ -fira-hoist-pressure -fira-share-save-slots -fira-share-spill-slots
  51              	@ -fisolate-erroneous-paths-dereference -fivopts -fkeep-static-consts
  52              	@ -fleading-underscore -fmath-errno -fmerge-constants -fmerge-debug-strings
  53              	@ -fomit-frame-pointer -foptimize-sibling-calls -fpartial-inlining
  54              	@ -fpeephole -fpeephole2 -fprefetch-loop-arrays -freg-struct-return
  55              	@ -freorder-blocks -freorder-functions -frerun-cse-after-loop
  56              	@ -fsched-critical-path-heuristic -fsched-dep-count-heuristic
  57              	@ -fsched-group-heuristic -fsched-interblock -fsched-last-insn-heuristic
ARM GAS  C:\cygwin\tmp\cczucU0R.s 			page 2


  58              	@ -fsched-pressure -fsched-rank-heuristic -fsched-spec
  59              	@ -fsched-spec-insn-heuristic -fsched-stalled-insns-dep -fschedule-insns2
  60              	@ -fsection-anchors -fshow-column -fsigned-zeros -fsplit-ivs-in-unroller
  61              	@ -fsplit-wide-types -fstrict-aliasing -fstrict-overflow
  62              	@ -fstrict-volatile-bitfields -fsync-libcalls -fthread-jumps
  63              	@ -ftoplevel-reorder -ftrapping-math -ftree-bit-ccp -ftree-builtin-call-dce
  64              	@ -ftree-ccp -ftree-ch -ftree-coalesce-vars -ftree-copy-prop
  65              	@ -ftree-copyrename -ftree-cselim -ftree-dce -ftree-dominator-opts
  66              	@ -ftree-dse -ftree-forwprop -ftree-fre -ftree-loop-if-convert
  67              	@ -ftree-loop-im -ftree-loop-ivcanon -ftree-loop-optimize
  68              	@ -ftree-parallelize-loops= -ftree-phiprop -ftree-pre -ftree-pta
  69              	@ -ftree-reassoc -ftree-scev-cprop -ftree-sink -ftree-slsr -ftree-sra
  70              	@ -ftree-switch-conversion -ftree-tail-merge -ftree-ter -ftree-vrp
  71              	@ -funit-at-a-time -fvar-tracking -fvar-tracking-assignments -fverbose-asm
  72              	@ -fzero-initialized-in-bss -mlittle-endian -mlra
  73              	@ -mpic-data-is-text-relative -msched-prolog -mthumb -munaligned-access
  74              	@ -mvectorize-with-neon-quad
  75              	
  76              		.text
  77              	.Ltext0:
  78              		.cfi_sections	.debug_frame
  79              		.section	.text.eMBFuncReadCoils,"ax",%progbits
  80              		.align	1
  81              		.global	eMBFuncReadCoils
  82              		.thumb
  83              		.thumb_func
  84              		.type	eMBFuncReadCoils, %function
  85              	eMBFuncReadCoils:
  86              	.LFB0:
  87              		.file 1 "freemodbus-v1.5.0/modbus/functions/mbfunccoils.c"
   1:freemodbus-v1.5.0/modbus/functions/mbfunccoils.c **** /* 
   2:freemodbus-v1.5.0/modbus/functions/mbfunccoils.c ****  * FreeModbus Libary: A portable Modbus implementation for Modbus ASCII/RTU.
   3:freemodbus-v1.5.0/modbus/functions/mbfunccoils.c ****  * Copyright (c) 2006 Christian Walter <wolti@sil.at>
   4:freemodbus-v1.5.0/modbus/functions/mbfunccoils.c ****  * All rights reserved.
   5:freemodbus-v1.5.0/modbus/functions/mbfunccoils.c ****  *
   6:freemodbus-v1.5.0/modbus/functions/mbfunccoils.c ****  * Redistribution and use in source and binary forms, with or without
   7:freemodbus-v1.5.0/modbus/functions/mbfunccoils.c ****  * modification, are permitted provided that the following conditions
   8:freemodbus-v1.5.0/modbus/functions/mbfunccoils.c ****  * are met:
   9:freemodbus-v1.5.0/modbus/functions/mbfunccoils.c ****  * 1. Redistributions of source code must retain the above copyright
  10:freemodbus-v1.5.0/modbus/functions/mbfunccoils.c ****  *    notice, this list of conditions and the following disclaimer.
  11:freemodbus-v1.5.0/modbus/functions/mbfunccoils.c ****  * 2. Redistributions in binary form must reproduce the above copyright
  12:freemodbus-v1.5.0/modbus/functions/mbfunccoils.c ****  *    notice, this list of conditions and the following disclaimer in the
  13:freemodbus-v1.5.0/modbus/functions/mbfunccoils.c ****  *    documentation and/or other materials provided with the distribution.
  14:freemodbus-v1.5.0/modbus/functions/mbfunccoils.c ****  * 3. The name of the author may not be used to endorse or promote products
  15:freemodbus-v1.5.0/modbus/functions/mbfunccoils.c ****  *    derived from this software without specific prior written permission.
  16:freemodbus-v1.5.0/modbus/functions/mbfunccoils.c ****  *
  17:freemodbus-v1.5.0/modbus/functions/mbfunccoils.c ****  * THIS SOFTWARE IS PROVIDED BY THE AUTHOR ``AS IS'' AND ANY EXPRESS OR
  18:freemodbus-v1.5.0/modbus/functions/mbfunccoils.c ****  * IMPLIED WARRANTIES, INCLUDING, BUT NOT LIMITED TO, THE IMPLIED WARRANTIES
  19:freemodbus-v1.5.0/modbus/functions/mbfunccoils.c ****  * OF MERCHANTABILITY AND FITNESS FOR A PARTICULAR PURPOSE ARE DISCLAIMED.
  20:freemodbus-v1.5.0/modbus/functions/mbfunccoils.c ****  * IN NO EVENT SHALL THE AUTHOR BE LIABLE FOR ANY DIRECT, INDIRECT,
  21:freemodbus-v1.5.0/modbus/functions/mbfunccoils.c ****  * INCIDENTAL, SPECIAL, EXEMPLARY, OR CONSEQUENTIAL DAMAGES (INCLUDING, BUT
  22:freemodbus-v1.5.0/modbus/functions/mbfunccoils.c ****  * NOT LIMITED TO, PROCUREMENT OF SUBSTITUTE GOODS OR SERVICES; LOSS OF USE,
  23:freemodbus-v1.5.0/modbus/functions/mbfunccoils.c ****  * DATA, OR PROFITS; OR BUSINESS INTERRUPTION) HOWEVER CAUSED AND ON ANY
  24:freemodbus-v1.5.0/modbus/functions/mbfunccoils.c ****  * THEORY OF LIABILITY, WHETHER IN CONTRACT, STRICT LIABILITY, OR TORT
  25:freemodbus-v1.5.0/modbus/functions/mbfunccoils.c ****  * (INCLUDING NEGLIGENCE OR OTHERWISE) ARISING IN ANY WAY OUT OF THE USE OF
  26:freemodbus-v1.5.0/modbus/functions/mbfunccoils.c ****  * THIS SOFTWARE, EVEN IF ADVISED OF THE POSSIBILITY OF SUCH DAMAGE.
  27:freemodbus-v1.5.0/modbus/functions/mbfunccoils.c ****  *
ARM GAS  C:\cygwin\tmp\cczucU0R.s 			page 3


  28:freemodbus-v1.5.0/modbus/functions/mbfunccoils.c ****  * File: $Id: mbfunccoils.c,v 1.8 2007/02/18 23:47:16 wolti Exp $
  29:freemodbus-v1.5.0/modbus/functions/mbfunccoils.c ****  */
  30:freemodbus-v1.5.0/modbus/functions/mbfunccoils.c **** 
  31:freemodbus-v1.5.0/modbus/functions/mbfunccoils.c **** /* ----------------------- System includes ----------------------------------*/
  32:freemodbus-v1.5.0/modbus/functions/mbfunccoils.c **** #include "stdlib.h"
  33:freemodbus-v1.5.0/modbus/functions/mbfunccoils.c **** #include "string.h"
  34:freemodbus-v1.5.0/modbus/functions/mbfunccoils.c **** 
  35:freemodbus-v1.5.0/modbus/functions/mbfunccoils.c **** /* ----------------------- Platform includes --------------------------------*/
  36:freemodbus-v1.5.0/modbus/functions/mbfunccoils.c **** #include "port.h"
  37:freemodbus-v1.5.0/modbus/functions/mbfunccoils.c **** 
  38:freemodbus-v1.5.0/modbus/functions/mbfunccoils.c **** /* ----------------------- Modbus includes ----------------------------------*/
  39:freemodbus-v1.5.0/modbus/functions/mbfunccoils.c **** #include "mb.h"
  40:freemodbus-v1.5.0/modbus/functions/mbfunccoils.c **** #include "mbframe.h"
  41:freemodbus-v1.5.0/modbus/functions/mbfunccoils.c **** #include "mbproto.h"
  42:freemodbus-v1.5.0/modbus/functions/mbfunccoils.c **** #include "mbconfig.h"
  43:freemodbus-v1.5.0/modbus/functions/mbfunccoils.c **** 
  44:freemodbus-v1.5.0/modbus/functions/mbfunccoils.c **** /* ----------------------- Defines ------------------------------------------*/
  45:freemodbus-v1.5.0/modbus/functions/mbfunccoils.c **** #define MB_PDU_FUNC_READ_ADDR_OFF           ( MB_PDU_DATA_OFF )
  46:freemodbus-v1.5.0/modbus/functions/mbfunccoils.c **** #define MB_PDU_FUNC_READ_COILCNT_OFF        ( MB_PDU_DATA_OFF + 2 )
  47:freemodbus-v1.5.0/modbus/functions/mbfunccoils.c **** #define MB_PDU_FUNC_READ_SIZE               ( 4 )
  48:freemodbus-v1.5.0/modbus/functions/mbfunccoils.c **** #define MB_PDU_FUNC_READ_COILCNT_MAX        ( 0x07D0 )
  49:freemodbus-v1.5.0/modbus/functions/mbfunccoils.c **** 
  50:freemodbus-v1.5.0/modbus/functions/mbfunccoils.c **** #define MB_PDU_FUNC_WRITE_ADDR_OFF          ( MB_PDU_DATA_OFF )
  51:freemodbus-v1.5.0/modbus/functions/mbfunccoils.c **** #define MB_PDU_FUNC_WRITE_VALUE_OFF         ( MB_PDU_DATA_OFF + 2 )
  52:freemodbus-v1.5.0/modbus/functions/mbfunccoils.c **** #define MB_PDU_FUNC_WRITE_SIZE              ( 4 )
  53:freemodbus-v1.5.0/modbus/functions/mbfunccoils.c **** 
  54:freemodbus-v1.5.0/modbus/functions/mbfunccoils.c **** #define MB_PDU_FUNC_WRITE_MUL_ADDR_OFF      ( MB_PDU_DATA_OFF )
  55:freemodbus-v1.5.0/modbus/functions/mbfunccoils.c **** #define MB_PDU_FUNC_WRITE_MUL_COILCNT_OFF   ( MB_PDU_DATA_OFF + 2 )
  56:freemodbus-v1.5.0/modbus/functions/mbfunccoils.c **** #define MB_PDU_FUNC_WRITE_MUL_BYTECNT_OFF   ( MB_PDU_DATA_OFF + 4 )
  57:freemodbus-v1.5.0/modbus/functions/mbfunccoils.c **** #define MB_PDU_FUNC_WRITE_MUL_VALUES_OFF    ( MB_PDU_DATA_OFF + 5 )
  58:freemodbus-v1.5.0/modbus/functions/mbfunccoils.c **** #define MB_PDU_FUNC_WRITE_MUL_SIZE_MIN      ( 5 )
  59:freemodbus-v1.5.0/modbus/functions/mbfunccoils.c **** #define MB_PDU_FUNC_WRITE_MUL_COILCNT_MAX   ( 0x07B0 )
  60:freemodbus-v1.5.0/modbus/functions/mbfunccoils.c **** 
  61:freemodbus-v1.5.0/modbus/functions/mbfunccoils.c **** /* ----------------------- Static functions ---------------------------------*/
  62:freemodbus-v1.5.0/modbus/functions/mbfunccoils.c **** eMBException    prveMBError2Exception( eMBErrorCode eErrorCode );
  63:freemodbus-v1.5.0/modbus/functions/mbfunccoils.c **** 
  64:freemodbus-v1.5.0/modbus/functions/mbfunccoils.c **** /* ----------------------- Start implementation -----------------------------*/
  65:freemodbus-v1.5.0/modbus/functions/mbfunccoils.c **** 
  66:freemodbus-v1.5.0/modbus/functions/mbfunccoils.c **** #if MB_FUNC_READ_COILS_ENABLED > 0
  67:freemodbus-v1.5.0/modbus/functions/mbfunccoils.c **** 
  68:freemodbus-v1.5.0/modbus/functions/mbfunccoils.c **** eMBException
  69:freemodbus-v1.5.0/modbus/functions/mbfunccoils.c **** eMBFuncReadCoils( UCHAR * pucFrame, USHORT * usLen )
  70:freemodbus-v1.5.0/modbus/functions/mbfunccoils.c **** {
  88              		.loc 1 70 0
  89              		.cfi_startproc
  90              		@ args = 0, pretend = 0, frame = 0
  91              		@ frame_needed = 0, uses_anonymous_args = 0
  92              	.LVL0:
  71:freemodbus-v1.5.0/modbus/functions/mbfunccoils.c ****     USHORT          usRegAddress;
  72:freemodbus-v1.5.0/modbus/functions/mbfunccoils.c ****     USHORT          usCoilCount;
  73:freemodbus-v1.5.0/modbus/functions/mbfunccoils.c ****     UCHAR           ucNBytes;
  74:freemodbus-v1.5.0/modbus/functions/mbfunccoils.c ****     UCHAR          *pucFrameCur;
  75:freemodbus-v1.5.0/modbus/functions/mbfunccoils.c **** 
  76:freemodbus-v1.5.0/modbus/functions/mbfunccoils.c ****     eMBException    eStatus = MB_EX_NONE;
  77:freemodbus-v1.5.0/modbus/functions/mbfunccoils.c ****     eMBErrorCode    eRegStatus;
  78:freemodbus-v1.5.0/modbus/functions/mbfunccoils.c **** 
  79:freemodbus-v1.5.0/modbus/functions/mbfunccoils.c ****     if( *usLen == ( MB_PDU_FUNC_READ_SIZE + MB_PDU_SIZE_MIN ) )
ARM GAS  C:\cygwin\tmp\cczucU0R.s 			page 4


  93              		.loc 1 79 0
  94 0000 0B88     		ldrh	r3, [r1]	@ *usLen_5(D), *usLen_5(D)
  95 0002 052B     		cmp	r3, #5	@ *usLen_5(D),
  70:freemodbus-v1.5.0/modbus/functions/mbfunccoils.c ****     USHORT          usRegAddress;
  96              		.loc 1 70 0
  97 0004 70B5     		push	{r4, r5, r6, lr}	@
  98              		.cfi_def_cfa_offset 16
  99              		.cfi_offset 4, -16
 100              		.cfi_offset 5, -12
 101              		.cfi_offset 6, -8
 102              		.cfi_offset 14, -4
  70:freemodbus-v1.5.0/modbus/functions/mbfunccoils.c ****     USHORT          usRegAddress;
 103              		.loc 1 70 0
 104 0006 0C46     		mov	r4, r1	@ usLen, usLen
 105              		.loc 1 79 0
 106 0008 2ED1     		bne	.L7	@,
  80:freemodbus-v1.5.0/modbus/functions/mbfunccoils.c ****     {
  81:freemodbus-v1.5.0/modbus/functions/mbfunccoils.c ****         usRegAddress = ( USHORT )( pucFrame[MB_PDU_FUNC_READ_ADDR_OFF] << 8 );
  82:freemodbus-v1.5.0/modbus/functions/mbfunccoils.c ****         usRegAddress |= ( USHORT )( pucFrame[MB_PDU_FUNC_READ_ADDR_OFF + 1] );
  83:freemodbus-v1.5.0/modbus/functions/mbfunccoils.c ****         usRegAddress++;
  84:freemodbus-v1.5.0/modbus/functions/mbfunccoils.c **** 
  85:freemodbus-v1.5.0/modbus/functions/mbfunccoils.c ****         usCoilCount = ( USHORT )( pucFrame[MB_PDU_FUNC_READ_COILCNT_OFF] << 8 );
 107              		.loc 1 85 0
 108 000a C578     		ldrb	r5, [r0, #3]	@ zero_extendqisi2	@ MEM[(UCHAR *)pucFrame_7(D) + 3B], MEM[(UCHAR *)pucFrame_7(D
  86:freemodbus-v1.5.0/modbus/functions/mbfunccoils.c ****         usCoilCount |= ( USHORT )( pucFrame[MB_PDU_FUNC_READ_COILCNT_OFF + 1] );
 109              		.loc 1 86 0
 110 000c 0279     		ldrb	r2, [r0, #4]	@ zero_extendqisi2	@ MEM[(UCHAR *)pucFrame_7(D) + 4B], MEM[(UCHAR *)pucFrame_7(D
  81:freemodbus-v1.5.0/modbus/functions/mbfunccoils.c ****         usRegAddress |= ( USHORT )( pucFrame[MB_PDU_FUNC_READ_ADDR_OFF + 1] );
 111              		.loc 1 81 0
 112 000e 4178     		ldrb	r1, [r0, #1]	@ zero_extendqisi2	@ D.5185, MEM[(UCHAR *)pucFrame_7(D) + 1B]
 113              	.LVL1:
  82:freemodbus-v1.5.0/modbus/functions/mbfunccoils.c ****         usRegAddress++;
 114              		.loc 1 82 0
 115 0010 8378     		ldrb	r3, [r0, #2]	@ zero_extendqisi2	@ D.5185, MEM[(UCHAR *)pucFrame_7(D) + 2B]
 116              	.LVL2:
 117              		.loc 1 86 0
 118 0012 42EA0522 		orr	r2, r2, r5, lsl #8	@, usCoilCount, MEM[(UCHAR *)pucFrame_7(D) + 4B], MEM[(UCHAR *)pucFrame_7(D
 119              	.LVL3:
  87:freemodbus-v1.5.0/modbus/functions/mbfunccoils.c **** 
  88:freemodbus-v1.5.0/modbus/functions/mbfunccoils.c ****         /* Check if the number of registers to read is valid. If not
  89:freemodbus-v1.5.0/modbus/functions/mbfunccoils.c ****          * return Modbus illegal data value exception. 
  90:freemodbus-v1.5.0/modbus/functions/mbfunccoils.c ****          */
  91:freemodbus-v1.5.0/modbus/functions/mbfunccoils.c ****         if( ( usCoilCount >= 1 ) &&
 120              		.loc 1 91 0
 121 0016 551E     		subs	r5, r2, #1	@ tmp150, usCoilCount,
 122 0018 ADB2     		uxth	r5, r5	@ tmp151, tmp150
 123 001a 40F2CE76 		movw	r6, #1998	@ tmp152,
 124 001e B542     		cmp	r5, r6	@ tmp151, tmp152
 125 0020 22D8     		bhi	.L7	@,
 126              	.LVL4:
  92:freemodbus-v1.5.0/modbus/functions/mbfunccoils.c ****             ( usCoilCount < MB_PDU_FUNC_READ_COILCNT_MAX ) )
  93:freemodbus-v1.5.0/modbus/functions/mbfunccoils.c ****         {
  94:freemodbus-v1.5.0/modbus/functions/mbfunccoils.c ****             /* Set the current PDU data pointer to the beginning. */
  95:freemodbus-v1.5.0/modbus/functions/mbfunccoils.c ****             pucFrameCur = &pucFrame[MB_PDU_FUNC_OFF];
  96:freemodbus-v1.5.0/modbus/functions/mbfunccoils.c ****             *usLen = MB_PDU_FUNC_OFF;
 127              		.loc 1 96 0
 128 0022 0025     		movs	r5, #0	@ tmp154,
ARM GAS  C:\cygwin\tmp\cczucU0R.s 			page 5


 129 0024 2580     		strh	r5, [r4]	@ movhi	@ tmp154, *usLen_5(D)
 130              	.LVL5:
  97:freemodbus-v1.5.0/modbus/functions/mbfunccoils.c **** 
  98:freemodbus-v1.5.0/modbus/functions/mbfunccoils.c ****             /* First byte contains the function code. */
  99:freemodbus-v1.5.0/modbus/functions/mbfunccoils.c ****             *pucFrameCur++ = MB_FUNC_READ_COILS;
 131              		.loc 1 99 0
 132 0026 0125     		movs	r5, #1	@ tmp155,
 133 0028 0570     		strb	r5, [r0]	@ tmp155, *pucFrame_7(D)
 100:freemodbus-v1.5.0/modbus/functions/mbfunccoils.c ****             *usLen += 1;
 134              		.loc 1 100 0
 135 002a 2588     		ldrh	r5, [r4]	@, *usLen_5(D)
 136 002c 0135     		adds	r5, r5, #1	@ tmp158, *usLen_5(D),
 137 002e 2580     		strh	r5, [r4]	@ movhi	@ tmp158, *usLen_5(D)
 101:freemodbus-v1.5.0/modbus/functions/mbfunccoils.c **** 
 102:freemodbus-v1.5.0/modbus/functions/mbfunccoils.c ****             /* Test if the quantity of coils is a multiple of 8. If not last
 103:freemodbus-v1.5.0/modbus/functions/mbfunccoils.c ****              * byte is only partially field with unused coils set to zero. */
 104:freemodbus-v1.5.0/modbus/functions/mbfunccoils.c ****             if( ( usCoilCount & 0x0007 ) != 0 )
 138              		.loc 1 104 0
 139 0030 12F0070F 		tst	r2, #7	@ usCoilCount,
 140 0034 4FEAD205 		lsr	r5, r2, #3	@ tmp186, usCoilCount,
 105:freemodbus-v1.5.0/modbus/functions/mbfunccoils.c ****             {
 106:freemodbus-v1.5.0/modbus/functions/mbfunccoils.c ****                 ucNBytes = ( UCHAR )( usCoilCount / 8 + 1 );
 141              		.loc 1 106 0
 142 0038 18BF     		it	ne
 143 003a 0135     		addne	r5, r5, #1	@ tmp165, tmp186,
 107:freemodbus-v1.5.0/modbus/functions/mbfunccoils.c ****             }
 108:freemodbus-v1.5.0/modbus/functions/mbfunccoils.c ****             else
 109:freemodbus-v1.5.0/modbus/functions/mbfunccoils.c ****             {
 110:freemodbus-v1.5.0/modbus/functions/mbfunccoils.c ****                 ucNBytes = ( UCHAR )( usCoilCount / 8 );
 144              		.loc 1 110 0
 145 003c EDB2     		uxtb	r5, r5	@ ucNBytes, tmp186
 146              	.LVL6:
 111:freemodbus-v1.5.0/modbus/functions/mbfunccoils.c ****             }
 112:freemodbus-v1.5.0/modbus/functions/mbfunccoils.c ****             *pucFrameCur++ = ucNBytes;
 147              		.loc 1 112 0
 148 003e 4570     		strb	r5, [r0, #1]	@ ucNBytes, MEM[(UCHAR *)pucFrame_7(D) + 1B]
 113:freemodbus-v1.5.0/modbus/functions/mbfunccoils.c ****             *usLen += 1;
 149              		.loc 1 113 0
 150 0040 2688     		ldrh	r6, [r4]	@, *usLen_5(D)
  82:freemodbus-v1.5.0/modbus/functions/mbfunccoils.c ****         usRegAddress++;
 151              		.loc 1 82 0
 152 0042 43EA0121 		orr	r1, r3, r1, lsl #8	@, usRegAddress, D.5185, D.5185,
 153              	.LVL7:
 154              		.loc 1 113 0
 155 0046 0136     		adds	r6, r6, #1	@ tmp170, *usLen_5(D),
  83:freemodbus-v1.5.0/modbus/functions/mbfunccoils.c **** 
 156              		.loc 1 83 0
 157 0048 0131     		adds	r1, r1, #1	@ tmp177, usRegAddress,
 158              		.loc 1 113 0
 159 004a 2680     		strh	r6, [r4]	@ movhi	@ tmp170, *usLen_5(D)
 114:freemodbus-v1.5.0/modbus/functions/mbfunccoils.c **** 
 115:freemodbus-v1.5.0/modbus/functions/mbfunccoils.c ****             eRegStatus =
 160              		.loc 1 115 0
 161 004c 0230     		adds	r0, r0, #2	@, pucFrame,
 162              	.LVL8:
 163 004e 89B2     		uxth	r1, r1	@, tmp177
 164 0050 0023     		movs	r3, #0	@,
ARM GAS  C:\cygwin\tmp\cczucU0R.s 			page 6


 165 0052 FFF7FEFF 		bl	eMBRegCoilsCB	@
 166              	.LVL9:
 116:freemodbus-v1.5.0/modbus/functions/mbfunccoils.c ****                 eMBRegCoilsCB( pucFrameCur, usRegAddress, usCoilCount,
 117:freemodbus-v1.5.0/modbus/functions/mbfunccoils.c ****                                MB_REG_READ );
 118:freemodbus-v1.5.0/modbus/functions/mbfunccoils.c **** 
 119:freemodbus-v1.5.0/modbus/functions/mbfunccoils.c ****             /* If an error occured convert it into a Modbus exception. */
 120:freemodbus-v1.5.0/modbus/functions/mbfunccoils.c ****             if( eRegStatus != MB_ENOERR )
 167              		.loc 1 120 0
 168 0056 18B1     		cbz	r0, .L5	@,
 121:freemodbus-v1.5.0/modbus/functions/mbfunccoils.c ****             {
 122:freemodbus-v1.5.0/modbus/functions/mbfunccoils.c ****                 eStatus = prveMBError2Exception( eRegStatus );
 123:freemodbus-v1.5.0/modbus/functions/mbfunccoils.c ****             }
 124:freemodbus-v1.5.0/modbus/functions/mbfunccoils.c ****             else
 125:freemodbus-v1.5.0/modbus/functions/mbfunccoils.c ****             {
 126:freemodbus-v1.5.0/modbus/functions/mbfunccoils.c ****                 /* The response contains the function code, the starting address
 127:freemodbus-v1.5.0/modbus/functions/mbfunccoils.c ****                  * and the quantity of registers. We reuse the old values in the 
 128:freemodbus-v1.5.0/modbus/functions/mbfunccoils.c ****                  * buffer because they are still valid. */
 129:freemodbus-v1.5.0/modbus/functions/mbfunccoils.c ****                 *usLen += ucNBytes;;
 130:freemodbus-v1.5.0/modbus/functions/mbfunccoils.c ****             }
 131:freemodbus-v1.5.0/modbus/functions/mbfunccoils.c ****         }
 132:freemodbus-v1.5.0/modbus/functions/mbfunccoils.c ****         else
 133:freemodbus-v1.5.0/modbus/functions/mbfunccoils.c ****         {
 134:freemodbus-v1.5.0/modbus/functions/mbfunccoils.c ****             eStatus = MB_EX_ILLEGAL_DATA_VALUE;
 135:freemodbus-v1.5.0/modbus/functions/mbfunccoils.c ****         }
 136:freemodbus-v1.5.0/modbus/functions/mbfunccoils.c ****     }
 137:freemodbus-v1.5.0/modbus/functions/mbfunccoils.c ****     else
 138:freemodbus-v1.5.0/modbus/functions/mbfunccoils.c ****     {
 139:freemodbus-v1.5.0/modbus/functions/mbfunccoils.c ****         /* Can't be a valid read coil register request because the length
 140:freemodbus-v1.5.0/modbus/functions/mbfunccoils.c ****          * is incorrect. */
 141:freemodbus-v1.5.0/modbus/functions/mbfunccoils.c ****         eStatus = MB_EX_ILLEGAL_DATA_VALUE;
 142:freemodbus-v1.5.0/modbus/functions/mbfunccoils.c ****     }
 143:freemodbus-v1.5.0/modbus/functions/mbfunccoils.c ****     return eStatus;
 144:freemodbus-v1.5.0/modbus/functions/mbfunccoils.c **** }
 169              		.loc 1 144 0
 170 0058 BDE87040 		pop	{r4, r5, r6, lr}	@
 171              		.cfi_remember_state
 172              		.cfi_restore 14
 173              		.cfi_restore 6
 174              		.cfi_restore 5
 175              		.cfi_restore 4
 176              		.cfi_def_cfa_offset 0
 177              	.LVL10:
 122:freemodbus-v1.5.0/modbus/functions/mbfunccoils.c ****             }
 178              		.loc 1 122 0
 179 005c FFF7FEBF 		b	prveMBError2Exception	@
 180              	.LVL11:
 181              	.L5:
 182              		.cfi_restore_state
 129:freemodbus-v1.5.0/modbus/functions/mbfunccoils.c ****             }
 183              		.loc 1 129 0
 184 0060 2288     		ldrh	r2, [r4]	@, *usLen_5(D)
 185 0062 1544     		add	r5, r5, r2	@ tmp183, *usLen_5(D)
 186              	.LVL12:
 187 0064 2580     		strh	r5, [r4]	@ movhi	@ tmp183, *usLen_5(D)
 188 0066 70BD     		pop	{r4, r5, r6, pc}	@
 189              	.LVL13:
 190              	.L7:
ARM GAS  C:\cygwin\tmp\cczucU0R.s 			page 7


 141:freemodbus-v1.5.0/modbus/functions/mbfunccoils.c ****     }
 191              		.loc 1 141 0
 192 0068 0320     		movs	r0, #3	@ eStatus,
 193              	.LVL14:
 194              		.loc 1 144 0
 195 006a 70BD     		pop	{r4, r5, r6, pc}	@
 196              		.cfi_endproc
 197              	.LFE0:
 198              		.size	eMBFuncReadCoils, .-eMBFuncReadCoils
 199              		.section	.text.eMBFuncWriteCoil,"ax",%progbits
 200              		.align	1
 201              		.global	eMBFuncWriteCoil
 202              		.thumb
 203              		.thumb_func
 204              		.type	eMBFuncWriteCoil, %function
 205              	eMBFuncWriteCoil:
 206              	.LFB1:
 145:freemodbus-v1.5.0/modbus/functions/mbfunccoils.c **** 
 146:freemodbus-v1.5.0/modbus/functions/mbfunccoils.c **** #if MB_FUNC_WRITE_COIL_ENABLED > 0
 147:freemodbus-v1.5.0/modbus/functions/mbfunccoils.c **** eMBException
 148:freemodbus-v1.5.0/modbus/functions/mbfunccoils.c **** eMBFuncWriteCoil( UCHAR * pucFrame, USHORT * usLen )
 149:freemodbus-v1.5.0/modbus/functions/mbfunccoils.c **** {
 207              		.loc 1 149 0
 208              		.cfi_startproc
 209              		@ args = 0, pretend = 0, frame = 8
 210              		@ frame_needed = 0, uses_anonymous_args = 0
 211              	.LVL15:
 150:freemodbus-v1.5.0/modbus/functions/mbfunccoils.c ****     USHORT          usRegAddress;
 151:freemodbus-v1.5.0/modbus/functions/mbfunccoils.c ****     UCHAR           ucBuf[2];
 152:freemodbus-v1.5.0/modbus/functions/mbfunccoils.c **** 
 153:freemodbus-v1.5.0/modbus/functions/mbfunccoils.c ****     eMBException    eStatus = MB_EX_NONE;
 154:freemodbus-v1.5.0/modbus/functions/mbfunccoils.c ****     eMBErrorCode    eRegStatus;
 155:freemodbus-v1.5.0/modbus/functions/mbfunccoils.c **** 
 156:freemodbus-v1.5.0/modbus/functions/mbfunccoils.c ****     if( *usLen == ( MB_PDU_FUNC_WRITE_SIZE + MB_PDU_SIZE_MIN ) )
 212              		.loc 1 156 0
 213 0000 0B88     		ldrh	r3, [r1]	@ *usLen_5(D), *usLen_5(D)
 214 0002 052B     		cmp	r3, #5	@ *usLen_5(D),
 149:freemodbus-v1.5.0/modbus/functions/mbfunccoils.c ****     USHORT          usRegAddress;
 215              		.loc 1 149 0
 216 0004 13B5     		push	{r0, r1, r4, lr}	@
 217              		.cfi_def_cfa_offset 16
 218              		.cfi_offset 4, -8
 219              		.cfi_offset 14, -4
 220              		.loc 1 156 0
 221 0006 1CD1     		bne	.L15	@,
 157:freemodbus-v1.5.0/modbus/functions/mbfunccoils.c ****     {
 158:freemodbus-v1.5.0/modbus/functions/mbfunccoils.c ****         usRegAddress = ( USHORT )( pucFrame[MB_PDU_FUNC_WRITE_ADDR_OFF] << 8 );
 159:freemodbus-v1.5.0/modbus/functions/mbfunccoils.c ****         usRegAddress |= ( USHORT )( pucFrame[MB_PDU_FUNC_WRITE_ADDR_OFF + 1] );
 160:freemodbus-v1.5.0/modbus/functions/mbfunccoils.c ****         usRegAddress++;
 161:freemodbus-v1.5.0/modbus/functions/mbfunccoils.c **** 
 162:freemodbus-v1.5.0/modbus/functions/mbfunccoils.c ****         if( ( pucFrame[MB_PDU_FUNC_WRITE_VALUE_OFF + 1] == 0x00 ) &&
 222              		.loc 1 162 0
 223 0008 0279     		ldrb	r2, [r0, #4]	@ zero_extendqisi2	@ MEM[(UCHAR *)pucFrame_7(D) + 4B], MEM[(UCHAR *)pucFrame_7(D
 158:freemodbus-v1.5.0/modbus/functions/mbfunccoils.c ****         usRegAddress |= ( USHORT )( pucFrame[MB_PDU_FUNC_WRITE_ADDR_OFF + 1] );
 224              		.loc 1 158 0
 225 000a 4178     		ldrb	r1, [r0, #1]	@ zero_extendqisi2	@ D.5190, MEM[(UCHAR *)pucFrame_7(D) + 1B]
 226              	.LVL16:
ARM GAS  C:\cygwin\tmp\cczucU0R.s 			page 8


 159:freemodbus-v1.5.0/modbus/functions/mbfunccoils.c ****         usRegAddress++;
 227              		.loc 1 159 0
 228 000c 8378     		ldrb	r3, [r0, #2]	@ zero_extendqisi2	@ D.5190, MEM[(UCHAR *)pucFrame_7(D) + 2B]
 229              	.LVL17:
 230              		.loc 1 162 0
 231 000e C2B9     		cbnz	r2, .L15	@ MEM[(UCHAR *)pucFrame_7(D) + 4B],
 163:freemodbus-v1.5.0/modbus/functions/mbfunccoils.c ****             ( ( pucFrame[MB_PDU_FUNC_WRITE_VALUE_OFF] == 0xFF ) ||
 232              		.loc 1 163 0 discriminator 1
 233 0010 C478     		ldrb	r4, [r0, #3]	@ zero_extendqisi2	@ D.5190, MEM[(UCHAR *)pucFrame_7(D) + 3B]
 234 0012 601E     		subs	r0, r4, #1	@ tmp128, D.5190,
 235              	.LVL18:
 162:freemodbus-v1.5.0/modbus/functions/mbfunccoils.c ****             ( ( pucFrame[MB_PDU_FUNC_WRITE_VALUE_OFF] == 0xFF ) ||
 236              		.loc 1 162 0 discriminator 1
 237 0014 C0B2     		uxtb	r0, r0	@ tmp129, tmp128
 238 0016 FD28     		cmp	r0, #253	@ tmp129,
 239 0018 13D9     		bls	.L15	@,
 164:freemodbus-v1.5.0/modbus/functions/mbfunccoils.c ****               ( pucFrame[MB_PDU_FUNC_WRITE_VALUE_OFF] == 0x00 ) ) )
 165:freemodbus-v1.5.0/modbus/functions/mbfunccoils.c ****         {
 166:freemodbus-v1.5.0/modbus/functions/mbfunccoils.c ****             ucBuf[1] = 0;
 167:freemodbus-v1.5.0/modbus/functions/mbfunccoils.c ****             if( pucFrame[MB_PDU_FUNC_WRITE_VALUE_OFF] == 0xFF )
 240              		.loc 1 167 0
 241 001a FF2C     		cmp	r4, #255	@ D.5190,
 166:freemodbus-v1.5.0/modbus/functions/mbfunccoils.c ****             if( pucFrame[MB_PDU_FUNC_WRITE_VALUE_OFF] == 0xFF )
 242              		.loc 1 166 0
 243 001c 8DF80520 		strb	r2, [sp, #5]	@ MEM[(UCHAR *)pucFrame_7(D) + 4B], ucBuf
 159:freemodbus-v1.5.0/modbus/functions/mbfunccoils.c ****         usRegAddress++;
 244              		.loc 1 159 0
 245 0020 43EA0121 		orr	r1, r3, r1, lsl #8	@, usRegAddress, D.5190, D.5190,
 246              	.LVL19:
 168:freemodbus-v1.5.0/modbus/functions/mbfunccoils.c ****             {
 169:freemodbus-v1.5.0/modbus/functions/mbfunccoils.c ****                 ucBuf[0] = 1;
 247              		.loc 1 169 0
 248 0024 08BF     		it	eq
 249 0026 0122     		moveq	r2, #1	@ tmp132,
 170:freemodbus-v1.5.0/modbus/functions/mbfunccoils.c ****             }
 171:freemodbus-v1.5.0/modbus/functions/mbfunccoils.c ****             else
 172:freemodbus-v1.5.0/modbus/functions/mbfunccoils.c ****             {
 173:freemodbus-v1.5.0/modbus/functions/mbfunccoils.c ****                 ucBuf[0] = 0;
 250              		.loc 1 173 0
 251 0028 8DF80420 		strb	r2, [sp, #4]	@ MEM[(UCHAR *)pucFrame_7(D) + 4B], ucBuf
 160:freemodbus-v1.5.0/modbus/functions/mbfunccoils.c **** 
 252              		.loc 1 160 0
 253 002c 0131     		adds	r1, r1, #1	@ tmp141, usRegAddress,
 174:freemodbus-v1.5.0/modbus/functions/mbfunccoils.c ****             }
 175:freemodbus-v1.5.0/modbus/functions/mbfunccoils.c ****             eRegStatus =
 254              		.loc 1 175 0
 255 002e 0122     		movs	r2, #1	@,
 256 0030 01A8     		add	r0, sp, #4	@,,
 257 0032 89B2     		uxth	r1, r1	@, tmp141
 258 0034 1346     		mov	r3, r2	@,
 259              	.LVL20:
 260 0036 FFF7FEFF 		bl	eMBRegCoilsCB	@
 261              	.LVL21:
 176:freemodbus-v1.5.0/modbus/functions/mbfunccoils.c ****                 eMBRegCoilsCB( &ucBuf[0], usRegAddress, 1, MB_REG_WRITE );
 177:freemodbus-v1.5.0/modbus/functions/mbfunccoils.c **** 
 178:freemodbus-v1.5.0/modbus/functions/mbfunccoils.c ****             /* If an error occured convert it into a Modbus exception. */
 179:freemodbus-v1.5.0/modbus/functions/mbfunccoils.c ****             if( eRegStatus != MB_ENOERR )
ARM GAS  C:\cygwin\tmp\cczucU0R.s 			page 9


 262              		.loc 1 179 0
 263 003a 20B1     		cbz	r0, .L16	@,
 180:freemodbus-v1.5.0/modbus/functions/mbfunccoils.c ****             {
 181:freemodbus-v1.5.0/modbus/functions/mbfunccoils.c ****                 eStatus = prveMBError2Exception( eRegStatus );
 264              		.loc 1 181 0
 265 003c FFF7FEFF 		bl	prveMBError2Exception	@
 266              	.LVL22:
 267 0040 01E0     		b	.L10	@
 268              	.LVL23:
 269              	.L15:
 182:freemodbus-v1.5.0/modbus/functions/mbfunccoils.c ****             }
 183:freemodbus-v1.5.0/modbus/functions/mbfunccoils.c ****         }
 184:freemodbus-v1.5.0/modbus/functions/mbfunccoils.c ****         else
 185:freemodbus-v1.5.0/modbus/functions/mbfunccoils.c ****         {
 186:freemodbus-v1.5.0/modbus/functions/mbfunccoils.c ****             eStatus = MB_EX_ILLEGAL_DATA_VALUE;
 187:freemodbus-v1.5.0/modbus/functions/mbfunccoils.c ****         }
 188:freemodbus-v1.5.0/modbus/functions/mbfunccoils.c ****     }
 189:freemodbus-v1.5.0/modbus/functions/mbfunccoils.c ****     else
 190:freemodbus-v1.5.0/modbus/functions/mbfunccoils.c ****     {
 191:freemodbus-v1.5.0/modbus/functions/mbfunccoils.c ****         /* Can't be a valid write coil register request because the length
 192:freemodbus-v1.5.0/modbus/functions/mbfunccoils.c ****          * is incorrect. */
 193:freemodbus-v1.5.0/modbus/functions/mbfunccoils.c ****         eStatus = MB_EX_ILLEGAL_DATA_VALUE;
 270              		.loc 1 193 0
 271 0042 0320     		movs	r0, #3	@ eStatus,
 272 0044 FFE7     		b	.L10	@
 273              	.LVL24:
 274              	.L16:
 275              	.L10:
 194:freemodbus-v1.5.0/modbus/functions/mbfunccoils.c ****     }
 195:freemodbus-v1.5.0/modbus/functions/mbfunccoils.c ****     return eStatus;
 196:freemodbus-v1.5.0/modbus/functions/mbfunccoils.c **** }
 276              		.loc 1 196 0
 277 0046 02B0     		add	sp, sp, #8	@,,
 278              		.cfi_def_cfa_offset 8
 279              		@ sp needed	@
 280 0048 10BD     		pop	{r4, pc}	@
 281              		.cfi_endproc
 282              	.LFE1:
 283              		.size	eMBFuncWriteCoil, .-eMBFuncWriteCoil
 284              		.section	.text.eMBFuncWriteMultipleCoils,"ax",%progbits
 285              		.align	1
 286              		.global	eMBFuncWriteMultipleCoils
 287              		.thumb
 288              		.thumb_func
 289              		.type	eMBFuncWriteMultipleCoils, %function
 290              	eMBFuncWriteMultipleCoils:
 291              	.LFB2:
 197:freemodbus-v1.5.0/modbus/functions/mbfunccoils.c **** 
 198:freemodbus-v1.5.0/modbus/functions/mbfunccoils.c **** #endif
 199:freemodbus-v1.5.0/modbus/functions/mbfunccoils.c **** 
 200:freemodbus-v1.5.0/modbus/functions/mbfunccoils.c **** #if MB_FUNC_WRITE_MULTIPLE_COILS_ENABLED > 0
 201:freemodbus-v1.5.0/modbus/functions/mbfunccoils.c **** eMBException
 202:freemodbus-v1.5.0/modbus/functions/mbfunccoils.c **** eMBFuncWriteMultipleCoils( UCHAR * pucFrame, USHORT * usLen )
 203:freemodbus-v1.5.0/modbus/functions/mbfunccoils.c **** {
 292              		.loc 1 203 0
 293              		.cfi_startproc
 294              		@ args = 0, pretend = 0, frame = 0
ARM GAS  C:\cygwin\tmp\cczucU0R.s 			page 10


 295              		@ frame_needed = 0, uses_anonymous_args = 0
 296              	.LVL25:
 297 0000 F8B5     		push	{r3, r4, r5, r6, r7, lr}	@
 298              		.cfi_def_cfa_offset 24
 299              		.cfi_offset 3, -24
 300              		.cfi_offset 4, -20
 301              		.cfi_offset 5, -16
 302              		.cfi_offset 6, -12
 303              		.cfi_offset 7, -8
 304              		.cfi_offset 14, -4
 204:freemodbus-v1.5.0/modbus/functions/mbfunccoils.c ****     USHORT          usRegAddress;
 205:freemodbus-v1.5.0/modbus/functions/mbfunccoils.c ****     USHORT          usCoilCnt;
 206:freemodbus-v1.5.0/modbus/functions/mbfunccoils.c ****     UCHAR           ucByteCount;
 207:freemodbus-v1.5.0/modbus/functions/mbfunccoils.c ****     UCHAR           ucByteCountVerify;
 208:freemodbus-v1.5.0/modbus/functions/mbfunccoils.c **** 
 209:freemodbus-v1.5.0/modbus/functions/mbfunccoils.c ****     eMBException    eStatus = MB_EX_NONE;
 210:freemodbus-v1.5.0/modbus/functions/mbfunccoils.c ****     eMBErrorCode    eRegStatus;
 211:freemodbus-v1.5.0/modbus/functions/mbfunccoils.c **** 
 212:freemodbus-v1.5.0/modbus/functions/mbfunccoils.c ****     if( *usLen > ( MB_PDU_FUNC_WRITE_SIZE + MB_PDU_SIZE_MIN ) )
 305              		.loc 1 212 0
 306 0002 0B88     		ldrh	r3, [r1]	@ *usLen_5(D), *usLen_5(D)
 307 0004 052B     		cmp	r3, #5	@ *usLen_5(D),
 203:freemodbus-v1.5.0/modbus/functions/mbfunccoils.c ****     USHORT          usRegAddress;
 308              		.loc 1 203 0
 309 0006 0C46     		mov	r4, r1	@ usLen, usLen
 310              		.loc 1 212 0
 311 0008 24D9     		bls	.L24	@,
 213:freemodbus-v1.5.0/modbus/functions/mbfunccoils.c ****     {
 214:freemodbus-v1.5.0/modbus/functions/mbfunccoils.c ****         usRegAddress = ( USHORT )( pucFrame[MB_PDU_FUNC_WRITE_MUL_ADDR_OFF] << 8 );
 215:freemodbus-v1.5.0/modbus/functions/mbfunccoils.c ****         usRegAddress |= ( USHORT )( pucFrame[MB_PDU_FUNC_WRITE_MUL_ADDR_OFF + 1] );
 216:freemodbus-v1.5.0/modbus/functions/mbfunccoils.c ****         usRegAddress++;
 217:freemodbus-v1.5.0/modbus/functions/mbfunccoils.c **** 
 218:freemodbus-v1.5.0/modbus/functions/mbfunccoils.c ****         usCoilCnt = ( USHORT )( pucFrame[MB_PDU_FUNC_WRITE_MUL_COILCNT_OFF] << 8 );
 219:freemodbus-v1.5.0/modbus/functions/mbfunccoils.c ****         usCoilCnt |= ( USHORT )( pucFrame[MB_PDU_FUNC_WRITE_MUL_COILCNT_OFF + 1] );
 312              		.loc 1 219 0
 313 000a 0379     		ldrb	r3, [r0, #4]	@ zero_extendqisi2	@ MEM[(UCHAR *)pucFrame_7(D) + 4B], MEM[(UCHAR *)pucFrame_7(D
 218:freemodbus-v1.5.0/modbus/functions/mbfunccoils.c ****         usCoilCnt |= ( USHORT )( pucFrame[MB_PDU_FUNC_WRITE_MUL_COILCNT_OFF + 1] );
 314              		.loc 1 218 0
 315 000c C278     		ldrb	r2, [r0, #3]	@ zero_extendqisi2	@ MEM[(UCHAR *)pucFrame_7(D) + 3B], MEM[(UCHAR *)pucFrame_7(D
 214:freemodbus-v1.5.0/modbus/functions/mbfunccoils.c ****         usRegAddress |= ( USHORT )( pucFrame[MB_PDU_FUNC_WRITE_MUL_ADDR_OFF + 1] );
 316              		.loc 1 214 0
 317 000e 4578     		ldrb	r5, [r0, #1]	@ zero_extendqisi2	@ D.5194, MEM[(UCHAR *)pucFrame_7(D) + 1B]
 318              	.LVL26:
 215:freemodbus-v1.5.0/modbus/functions/mbfunccoils.c ****         usRegAddress++;
 319              		.loc 1 215 0
 320 0010 8178     		ldrb	r1, [r0, #2]	@ zero_extendqisi2	@ D.5194, MEM[(UCHAR *)pucFrame_7(D) + 2B]
 321              	.LVL27:
 220:freemodbus-v1.5.0/modbus/functions/mbfunccoils.c **** 
 221:freemodbus-v1.5.0/modbus/functions/mbfunccoils.c ****         ucByteCount = pucFrame[MB_PDU_FUNC_WRITE_MUL_BYTECNT_OFF];
 322              		.loc 1 221 0
 323 0012 4679     		ldrb	r6, [r0, #5]	@ zero_extendqisi2	@ ucByteCount, MEM[(UCHAR *)pucFrame_7(D) + 5B]
 219:freemodbus-v1.5.0/modbus/functions/mbfunccoils.c **** 
 324              		.loc 1 219 0
 325 0014 43EA0222 		orr	r2, r3, r2, lsl #8	@, usCoilCnt, MEM[(UCHAR *)pucFrame_7(D) + 4B], MEM[(UCHAR *)pucFrame_7(D) 
 326              	.LVL28:
 222:freemodbus-v1.5.0/modbus/functions/mbfunccoils.c **** 
 223:freemodbus-v1.5.0/modbus/functions/mbfunccoils.c ****         /* Compute the number of expected bytes in the request. */
ARM GAS  C:\cygwin\tmp\cczucU0R.s 			page 11


 224:freemodbus-v1.5.0/modbus/functions/mbfunccoils.c ****         if( ( usCoilCnt & 0x0007 ) != 0 )
 327              		.loc 1 224 0
 328 0018 12F0070F 		tst	r2, #7	@ usCoilCnt,
 329 001c 4FEAD203 		lsr	r3, r2, #3	@ tmp166, usCoilCnt,
 225:freemodbus-v1.5.0/modbus/functions/mbfunccoils.c ****         {
 226:freemodbus-v1.5.0/modbus/functions/mbfunccoils.c ****             ucByteCountVerify = ( UCHAR )( usCoilCnt / 8 + 1 );
 227:freemodbus-v1.5.0/modbus/functions/mbfunccoils.c ****         }
 228:freemodbus-v1.5.0/modbus/functions/mbfunccoils.c ****         else
 229:freemodbus-v1.5.0/modbus/functions/mbfunccoils.c ****         {
 230:freemodbus-v1.5.0/modbus/functions/mbfunccoils.c ****             ucByteCountVerify = ( UCHAR )( usCoilCnt / 8 );
 231:freemodbus-v1.5.0/modbus/functions/mbfunccoils.c ****         }
 232:freemodbus-v1.5.0/modbus/functions/mbfunccoils.c **** 
 233:freemodbus-v1.5.0/modbus/functions/mbfunccoils.c ****         if( ( usCoilCnt >= 1 ) &&
 330              		.loc 1 233 0
 331 0020 02F1FF37 		add	r7, r2, #-1	@ tmp153, usCoilCnt,
 226:freemodbus-v1.5.0/modbus/functions/mbfunccoils.c ****         }
 332              		.loc 1 226 0
 333 0024 18BF     		it	ne
 334 0026 0133     		addne	r3, r3, #1	@ tmp149, tmp166,
 335              		.loc 1 233 0
 336 0028 B7F5F66F 		cmp	r7, #1968	@ tmp153,
 230:freemodbus-v1.5.0/modbus/functions/mbfunccoils.c ****         }
 337              		.loc 1 230 0
 338 002c DBB2     		uxtb	r3, r3	@ ucByteCountVerify, tmp166
 339              	.LVL29:
 340              		.loc 1 233 0
 341 002e 11D2     		bcs	.L24	@,
 234:freemodbus-v1.5.0/modbus/functions/mbfunccoils.c ****             ( usCoilCnt <= MB_PDU_FUNC_WRITE_MUL_COILCNT_MAX ) &&
 342              		.loc 1 234 0
 343 0030 B342     		cmp	r3, r6	@ ucByteCountVerify, ucByteCount
 344 0032 0FD1     		bne	.L24	@,
 215:freemodbus-v1.5.0/modbus/functions/mbfunccoils.c ****         usRegAddress++;
 345              		.loc 1 215 0
 346 0034 41EA0521 		orr	r1, r1, r5, lsl #8	@, usRegAddress, D.5194, D.5194,
 347              	.LVL30:
 216:freemodbus-v1.5.0/modbus/functions/mbfunccoils.c **** 
 348              		.loc 1 216 0
 349 0038 0131     		adds	r1, r1, #1	@ tmp159, usRegAddress,
 235:freemodbus-v1.5.0/modbus/functions/mbfunccoils.c ****             ( ucByteCountVerify == ucByteCount ) )
 236:freemodbus-v1.5.0/modbus/functions/mbfunccoils.c ****         {
 237:freemodbus-v1.5.0/modbus/functions/mbfunccoils.c ****             eRegStatus =
 350              		.loc 1 237 0
 351 003a 0630     		adds	r0, r0, #6	@, pucFrame,
 352              	.LVL31:
 353 003c 89B2     		uxth	r1, r1	@, tmp159
 354 003e 0123     		movs	r3, #1	@,
 355              	.LVL32:
 356 0040 FFF7FEFF 		bl	eMBRegCoilsCB	@
 357              	.LVL33:
 238:freemodbus-v1.5.0/modbus/functions/mbfunccoils.c ****                 eMBRegCoilsCB( &pucFrame[MB_PDU_FUNC_WRITE_MUL_VALUES_OFF],
 239:freemodbus-v1.5.0/modbus/functions/mbfunccoils.c ****                                usRegAddress, usCoilCnt, MB_REG_WRITE );
 240:freemodbus-v1.5.0/modbus/functions/mbfunccoils.c **** 
 241:freemodbus-v1.5.0/modbus/functions/mbfunccoils.c ****             /* If an error occured convert it into a Modbus exception. */
 242:freemodbus-v1.5.0/modbus/functions/mbfunccoils.c ****             if( eRegStatus != MB_ENOERR )
 358              		.loc 1 242 0
 359 0044 18B1     		cbz	r0, .L21	@,
 243:freemodbus-v1.5.0/modbus/functions/mbfunccoils.c ****             {
ARM GAS  C:\cygwin\tmp\cczucU0R.s 			page 12


 244:freemodbus-v1.5.0/modbus/functions/mbfunccoils.c ****                 eStatus = prveMBError2Exception( eRegStatus );
 245:freemodbus-v1.5.0/modbus/functions/mbfunccoils.c ****             }
 246:freemodbus-v1.5.0/modbus/functions/mbfunccoils.c ****             else
 247:freemodbus-v1.5.0/modbus/functions/mbfunccoils.c ****             {
 248:freemodbus-v1.5.0/modbus/functions/mbfunccoils.c ****                 /* The response contains the function code, the starting address
 249:freemodbus-v1.5.0/modbus/functions/mbfunccoils.c ****                  * and the quantity of registers. We reuse the old values in the 
 250:freemodbus-v1.5.0/modbus/functions/mbfunccoils.c ****                  * buffer because they are still valid. */
 251:freemodbus-v1.5.0/modbus/functions/mbfunccoils.c ****                 *usLen = MB_PDU_FUNC_WRITE_MUL_BYTECNT_OFF;
 252:freemodbus-v1.5.0/modbus/functions/mbfunccoils.c ****             }
 253:freemodbus-v1.5.0/modbus/functions/mbfunccoils.c ****         }
 254:freemodbus-v1.5.0/modbus/functions/mbfunccoils.c ****         else
 255:freemodbus-v1.5.0/modbus/functions/mbfunccoils.c ****         {
 256:freemodbus-v1.5.0/modbus/functions/mbfunccoils.c ****             eStatus = MB_EX_ILLEGAL_DATA_VALUE;
 257:freemodbus-v1.5.0/modbus/functions/mbfunccoils.c ****         }
 258:freemodbus-v1.5.0/modbus/functions/mbfunccoils.c ****     }
 259:freemodbus-v1.5.0/modbus/functions/mbfunccoils.c ****     else
 260:freemodbus-v1.5.0/modbus/functions/mbfunccoils.c ****     {
 261:freemodbus-v1.5.0/modbus/functions/mbfunccoils.c ****         /* Can't be a valid write coil register request because the length
 262:freemodbus-v1.5.0/modbus/functions/mbfunccoils.c ****          * is incorrect. */
 263:freemodbus-v1.5.0/modbus/functions/mbfunccoils.c ****         eStatus = MB_EX_ILLEGAL_DATA_VALUE;
 264:freemodbus-v1.5.0/modbus/functions/mbfunccoils.c ****     }
 265:freemodbus-v1.5.0/modbus/functions/mbfunccoils.c ****     return eStatus;
 266:freemodbus-v1.5.0/modbus/functions/mbfunccoils.c **** }
 360              		.loc 1 266 0
 361 0046 BDE8F840 		pop	{r3, r4, r5, r6, r7, lr}	@
 362              		.cfi_remember_state
 363              		.cfi_restore 14
 364              		.cfi_restore 7
 365              		.cfi_restore 6
 366              		.cfi_restore 5
 367              		.cfi_restore 4
 368              		.cfi_restore 3
 369              		.cfi_def_cfa_offset 0
 370              	.LVL34:
 244:freemodbus-v1.5.0/modbus/functions/mbfunccoils.c ****             }
 371              		.loc 1 244 0
 372 004a FFF7FEBF 		b	prveMBError2Exception	@
 373              	.LVL35:
 374              	.L21:
 375              		.cfi_restore_state
 251:freemodbus-v1.5.0/modbus/functions/mbfunccoils.c ****             }
 376              		.loc 1 251 0
 377 004e 0522     		movs	r2, #5	@ tmp164,
 378 0050 2280     		strh	r2, [r4]	@ movhi	@ tmp164, *usLen_5(D)
 379 0052 F8BD     		pop	{r3, r4, r5, r6, r7, pc}	@
 380              	.LVL36:
 381              	.L24:
 263:freemodbus-v1.5.0/modbus/functions/mbfunccoils.c ****     }
 382              		.loc 1 263 0
 383 0054 0320     		movs	r0, #3	@ eStatus,
 384              	.LVL37:
 385              		.loc 1 266 0
 386 0056 F8BD     		pop	{r3, r4, r5, r6, r7, pc}	@
 387              		.cfi_endproc
 388              	.LFE2:
 389              		.size	eMBFuncWriteMultipleCoils, .-eMBFuncWriteMultipleCoils
 390              		.text
ARM GAS  C:\cygwin\tmp\cczucU0R.s 			page 13


 391              	.Letext0:
 392              		.file 2 "c:\\program files\\gcc-arm-none-eabi-4_9-2014\\arm-none-eabi\\include\\machine\\_default_
 393              		.file 3 "c:\\program files\\gcc-arm-none-eabi-4_9-2014\\arm-none-eabi\\include\\stdint.h"
 394              		.file 4 "freemodbus-v1.5.0/port/port.h"
 395              		.file 5 "freemodbus-v1.5.0/modbus/include/mbproto.h"
 396              		.file 6 "freemodbus-v1.5.0/modbus/include/mb.h"