ARM GAS  C:\cygwin\tmp\ccaf6M7x.s 			page 1


   1              		.syntax unified
   2              		.cpu cortex-m4
   3              		.fpu softvfp
   4              		.eabi_attribute 20, 1	@ Tag_ABI_FP_denormal
   5              		.eabi_attribute 21, 1	@ Tag_ABI_FP_exceptions
   6              		.eabi_attribute 23, 3	@ Tag_ABI_FP_number_model
   7              		.eabi_attribute 24, 1	@ Tag_ABI_align8_needed
   8              		.eabi_attribute 25, 1	@ Tag_ABI_align8_preserved
   9              		.eabi_attribute 26, 1	@ Tag_ABI_enum_size
  10              		.eabi_attribute 30, 4	@ Tag_ABI_optimization_goals
  11              		.eabi_attribute 34, 1	@ Tag_CPU_unaligned_access
  12              		.eabi_attribute 18, 4	@ Tag_ABI_PCS_wchar_t
  13              		.file	"mbfuncinput.c"
  14              	@ GNU C (GNU Tools for ARM Embedded Processors) version 4.9.3 20141119 (release) [ARM/embedded-4_9-
  15              	@	compiled by GNU C version 4.7.4, GMP version 4.3.2, MPFR version 2.4.2, MPC version 0.8.1
  16              	@ GGC heuristics: --param ggc-min-expand=100 --param ggc-min-heapsize=131072
  17              	@ options passed:  -I . -I Inc -I gui -I emWin -I emWin/config
  18              	@ -I freemodbus-v1.5.0/port -I freemodbus-v1.5.0/modbus/include
  19              	@ -I freemodbus-v1.5.0/modbus/ascii -I freemodbus-v1.5.0/modbus/rtu
  20              	@ -I ../STM32Cube_FW_F4_V1.4.0/Drivers/CMSIS/Include
  21              	@ -I ../STM32Cube_FW_F4_V1.4.0/Drivers/CMSIS/Device/ST/STM32F4xx/Include
  22              	@ -I ../STM32Cube_FW_F4_V1.4.0/Drivers/STM32F4xx_HAL_Driver/Inc
  23              	@ -I ../STM32Cube_FW_F4_V1.4.0/Drivers/CMSIS/Include
  24              	@ -I ../STM32Cube_FW_F4_V1.4.0/Middlewares/ST/STemWin/inc
  25              	@ -I ../STM32Cube_FW_F4_V1.4.0/Middlewares/Third_Party/FatFs/src
  26              	@ -I ../STM32Cube_FW_F4_V1.4.0/Middlewares/Third_Party/FatFs/src/drivers/sd
  27              	@ -I ./drivers/display -imultilib armv7e-m
  28              	@ -iprefix c:\program files\gcc-arm-none-eabi-4_9-2014\bin\../lib/gcc/arm-none-eabi/4.9.3/
  29              	@ -isysroot c:\program files\gcc-arm-none-eabi-4_9-2014\bin\../arm-none-eabi
  30              	@ -MD out/mbfuncinput.d -MF out/mbfuncinput.d -MP -MQ out/mbfuncinput.o
  31              	@ -D__USES_INITFINI__ -D USE_HAL_DRIVER -D STM32F4XX -D HSE_VALUE=25000000
  32              	@ -D STM32F437xx -D USE_FULL_ASSERT -D __GNUC__ -D __VFP_FP__
  33              	@ -D ARM_MATH_CM4 -D LOG_INFO
  34              	@ freemodbus-v1.5.0/modbus/functions/mbfuncinput.c -mcpu=cortex-m4 -mthumb
  35              	@ -auxbase-strip out/mbfuncinput.o -g -ggdb3 -Os -Os -Wall
  36              	@ -Wstrict-prototypes -Wextra -std=gnu90 -ffunction-sections
  37              	@ -fdata-sections -fverbose-asm
  38              	@ options enabled:  -faggressive-loop-optimizations -fauto-inc-dec
  39              	@ -fbranch-count-reg -fcaller-saves -fcombine-stack-adjustments -fcommon
  40              	@ -fcompare-elim -fcprop-registers -fcrossjumping -fcse-follow-jumps
  41              	@ -fdata-sections -fdefer-pop -fdelete-null-pointer-checks -fdevirtualize
  42              	@ -fdevirtualize-speculatively -fdwarf2-cfi-asm -fearly-inlining
  43              	@ -feliminate-unused-debug-types -fexpensive-optimizations
  44              	@ -fforward-propagate -ffunction-cse -ffunction-sections -fgcse -fgcse-lm
  45              	@ -fgnu-runtime -fgnu-unique -fguess-branch-probability
  46              	@ -fhoist-adjacent-loads -fident -fif-conversion -fif-conversion2
  47              	@ -findirect-inlining -finline -finline-atomics -finline-functions
  48              	@ -finline-functions-called-once -finline-small-functions -fipa-cp
  49              	@ -fipa-profile -fipa-pure-const -fipa-reference -fipa-sra
  50              	@ -fira-hoist-pressure -fira-share-save-slots -fira-share-spill-slots
  51              	@ -fisolate-erroneous-paths-dereference -fivopts -fkeep-static-consts
  52              	@ -fleading-underscore -fmath-errno -fmerge-constants -fmerge-debug-strings
  53              	@ -fomit-frame-pointer -foptimize-sibling-calls -fpartial-inlining
  54              	@ -fpeephole -fpeephole2 -fprefetch-loop-arrays -freg-struct-return
  55              	@ -freorder-blocks -freorder-functions -frerun-cse-after-loop
  56              	@ -fsched-critical-path-heuristic -fsched-dep-count-heuristic
  57              	@ -fsched-group-heuristic -fsched-interblock -fsched-last-insn-heuristic
ARM GAS  C:\cygwin\tmp\ccaf6M7x.s 			page 2


  58              	@ -fsched-pressure -fsched-rank-heuristic -fsched-spec
  59              	@ -fsched-spec-insn-heuristic -fsched-stalled-insns-dep -fschedule-insns2
  60              	@ -fsection-anchors -fshow-column -fsigned-zeros -fsplit-ivs-in-unroller
  61              	@ -fsplit-wide-types -fstrict-aliasing -fstrict-overflow
  62              	@ -fstrict-volatile-bitfields -fsync-libcalls -fthread-jumps
  63              	@ -ftoplevel-reorder -ftrapping-math -ftree-bit-ccp -ftree-builtin-call-dce
  64              	@ -ftree-ccp -ftree-ch -ftree-coalesce-vars -ftree-copy-prop
  65              	@ -ftree-copyrename -ftree-cselim -ftree-dce -ftree-dominator-opts
  66              	@ -ftree-dse -ftree-forwprop -ftree-fre -ftree-loop-if-convert
  67              	@ -ftree-loop-im -ftree-loop-ivcanon -ftree-loop-optimize
  68              	@ -ftree-parallelize-loops= -ftree-phiprop -ftree-pre -ftree-pta
  69              	@ -ftree-reassoc -ftree-scev-cprop -ftree-sink -ftree-slsr -ftree-sra
  70              	@ -ftree-switch-conversion -ftree-tail-merge -ftree-ter -ftree-vrp
  71              	@ -funit-at-a-time -fvar-tracking -fvar-tracking-assignments -fverbose-asm
  72              	@ -fzero-initialized-in-bss -mlittle-endian -mlra
  73              	@ -mpic-data-is-text-relative -msched-prolog -mthumb -munaligned-access
  74              	@ -mvectorize-with-neon-quad
  75              	
  76              		.text
  77              	.Ltext0:
  78              		.cfi_sections	.debug_frame
  79              		.section	.text.eMBFuncReadInputRegister,"ax",%progbits
  80              		.align	1
  81              		.global	eMBFuncReadInputRegister
  82              		.thumb
  83              		.thumb_func
  84              		.type	eMBFuncReadInputRegister, %function
  85              	eMBFuncReadInputRegister:
  86              	.LFB0:
  87              		.file 1 "freemodbus-v1.5.0/modbus/functions/mbfuncinput.c"
   1:freemodbus-v1.5.0/modbus/functions/mbfuncinput.c **** /* 
   2:freemodbus-v1.5.0/modbus/functions/mbfuncinput.c ****  * FreeModbus Libary: A portable Modbus implementation for Modbus ASCII/RTU.
   3:freemodbus-v1.5.0/modbus/functions/mbfuncinput.c ****  * Copyright (c) 2006 Christian Walter <wolti@sil.at>
   4:freemodbus-v1.5.0/modbus/functions/mbfuncinput.c ****  * All rights reserved.
   5:freemodbus-v1.5.0/modbus/functions/mbfuncinput.c ****  *
   6:freemodbus-v1.5.0/modbus/functions/mbfuncinput.c ****  * Redistribution and use in source and binary forms, with or without
   7:freemodbus-v1.5.0/modbus/functions/mbfuncinput.c ****  * modification, are permitted provided that the following conditions
   8:freemodbus-v1.5.0/modbus/functions/mbfuncinput.c ****  * are met:
   9:freemodbus-v1.5.0/modbus/functions/mbfuncinput.c ****  * 1. Redistributions of source code must retain the above copyright
  10:freemodbus-v1.5.0/modbus/functions/mbfuncinput.c ****  *    notice, this list of conditions and the following disclaimer.
  11:freemodbus-v1.5.0/modbus/functions/mbfuncinput.c ****  * 2. Redistributions in binary form must reproduce the above copyright
  12:freemodbus-v1.5.0/modbus/functions/mbfuncinput.c ****  *    notice, this list of conditions and the following disclaimer in the
  13:freemodbus-v1.5.0/modbus/functions/mbfuncinput.c ****  *    documentation and/or other materials provided with the distribution.
  14:freemodbus-v1.5.0/modbus/functions/mbfuncinput.c ****  * 3. The name of the author may not be used to endorse or promote products
  15:freemodbus-v1.5.0/modbus/functions/mbfuncinput.c ****  *    derived from this software without specific prior written permission.
  16:freemodbus-v1.5.0/modbus/functions/mbfuncinput.c ****  *
  17:freemodbus-v1.5.0/modbus/functions/mbfuncinput.c ****  * THIS SOFTWARE IS PROVIDED BY THE AUTHOR ``AS IS'' AND ANY EXPRESS OR
  18:freemodbus-v1.5.0/modbus/functions/mbfuncinput.c ****  * IMPLIED WARRANTIES, INCLUDING, BUT NOT LIMITED TO, THE IMPLIED WARRANTIES
  19:freemodbus-v1.5.0/modbus/functions/mbfuncinput.c ****  * OF MERCHANTABILITY AND FITNESS FOR A PARTICULAR PURPOSE ARE DISCLAIMED.
  20:freemodbus-v1.5.0/modbus/functions/mbfuncinput.c ****  * IN NO EVENT SHALL THE AUTHOR BE LIABLE FOR ANY DIRECT, INDIRECT,
  21:freemodbus-v1.5.0/modbus/functions/mbfuncinput.c ****  * INCIDENTAL, SPECIAL, EXEMPLARY, OR CONSEQUENTIAL DAMAGES (INCLUDING, BUT
  22:freemodbus-v1.5.0/modbus/functions/mbfuncinput.c ****  * NOT LIMITED TO, PROCUREMENT OF SUBSTITUTE GOODS OR SERVICES; LOSS OF USE,
  23:freemodbus-v1.5.0/modbus/functions/mbfuncinput.c ****  * DATA, OR PROFITS; OR BUSINESS INTERRUPTION) HOWEVER CAUSED AND ON ANY
  24:freemodbus-v1.5.0/modbus/functions/mbfuncinput.c ****  * THEORY OF LIABILITY, WHETHER IN CONTRACT, STRICT LIABILITY, OR TORT
  25:freemodbus-v1.5.0/modbus/functions/mbfuncinput.c ****  * (INCLUDING NEGLIGENCE OR OTHERWISE) ARISING IN ANY WAY OUT OF THE USE OF
  26:freemodbus-v1.5.0/modbus/functions/mbfuncinput.c ****  * THIS SOFTWARE, EVEN IF ADVISED OF THE POSSIBILITY OF SUCH DAMAGE.
  27:freemodbus-v1.5.0/modbus/functions/mbfuncinput.c ****  *
ARM GAS  C:\cygwin\tmp\ccaf6M7x.s 			page 3


  28:freemodbus-v1.5.0/modbus/functions/mbfuncinput.c ****  * File: $Id: mbfuncinput.c,v 1.10 2007/09/12 10:15:56 wolti Exp $
  29:freemodbus-v1.5.0/modbus/functions/mbfuncinput.c ****  */
  30:freemodbus-v1.5.0/modbus/functions/mbfuncinput.c **** 
  31:freemodbus-v1.5.0/modbus/functions/mbfuncinput.c **** /* ----------------------- System includes ----------------------------------*/
  32:freemodbus-v1.5.0/modbus/functions/mbfuncinput.c **** #include "stdlib.h"
  33:freemodbus-v1.5.0/modbus/functions/mbfuncinput.c **** #include "string.h"
  34:freemodbus-v1.5.0/modbus/functions/mbfuncinput.c **** 
  35:freemodbus-v1.5.0/modbus/functions/mbfuncinput.c **** /* ----------------------- Platform includes --------------------------------*/
  36:freemodbus-v1.5.0/modbus/functions/mbfuncinput.c **** #include "port.h"
  37:freemodbus-v1.5.0/modbus/functions/mbfuncinput.c **** 
  38:freemodbus-v1.5.0/modbus/functions/mbfuncinput.c **** /* ----------------------- Modbus includes ----------------------------------*/
  39:freemodbus-v1.5.0/modbus/functions/mbfuncinput.c **** #include "mb.h"
  40:freemodbus-v1.5.0/modbus/functions/mbfuncinput.c **** #include "mbframe.h"
  41:freemodbus-v1.5.0/modbus/functions/mbfuncinput.c **** #include "mbproto.h"
  42:freemodbus-v1.5.0/modbus/functions/mbfuncinput.c **** #include "mbconfig.h"
  43:freemodbus-v1.5.0/modbus/functions/mbfuncinput.c **** 
  44:freemodbus-v1.5.0/modbus/functions/mbfuncinput.c **** /* ----------------------- Defines ------------------------------------------*/
  45:freemodbus-v1.5.0/modbus/functions/mbfuncinput.c **** #define MB_PDU_FUNC_READ_ADDR_OFF           ( MB_PDU_DATA_OFF )
  46:freemodbus-v1.5.0/modbus/functions/mbfuncinput.c **** #define MB_PDU_FUNC_READ_REGCNT_OFF         ( MB_PDU_DATA_OFF + 2 )
  47:freemodbus-v1.5.0/modbus/functions/mbfuncinput.c **** #define MB_PDU_FUNC_READ_SIZE               ( 4 )
  48:freemodbus-v1.5.0/modbus/functions/mbfuncinput.c **** #define MB_PDU_FUNC_READ_REGCNT_MAX         ( 0x007D )
  49:freemodbus-v1.5.0/modbus/functions/mbfuncinput.c **** 
  50:freemodbus-v1.5.0/modbus/functions/mbfuncinput.c **** #define MB_PDU_FUNC_READ_RSP_BYTECNT_OFF    ( MB_PDU_DATA_OFF )
  51:freemodbus-v1.5.0/modbus/functions/mbfuncinput.c **** 
  52:freemodbus-v1.5.0/modbus/functions/mbfuncinput.c **** /* ----------------------- Static functions ---------------------------------*/
  53:freemodbus-v1.5.0/modbus/functions/mbfuncinput.c **** eMBException    prveMBError2Exception( eMBErrorCode eErrorCode );
  54:freemodbus-v1.5.0/modbus/functions/mbfuncinput.c **** 
  55:freemodbus-v1.5.0/modbus/functions/mbfuncinput.c **** /* ----------------------- Start implementation -----------------------------*/
  56:freemodbus-v1.5.0/modbus/functions/mbfuncinput.c **** #if MB_FUNC_READ_INPUT_ENABLED > 0
  57:freemodbus-v1.5.0/modbus/functions/mbfuncinput.c **** 
  58:freemodbus-v1.5.0/modbus/functions/mbfuncinput.c **** eMBException
  59:freemodbus-v1.5.0/modbus/functions/mbfuncinput.c **** eMBFuncReadInputRegister( UCHAR * pucFrame, USHORT * usLen )
  60:freemodbus-v1.5.0/modbus/functions/mbfuncinput.c **** {
  88              		.loc 1 60 0
  89              		.cfi_startproc
  90              		@ args = 0, pretend = 0, frame = 0
  91              		@ frame_needed = 0, uses_anonymous_args = 0
  92              	.LVL0:
  61:freemodbus-v1.5.0/modbus/functions/mbfuncinput.c ****     USHORT          usRegAddress;
  62:freemodbus-v1.5.0/modbus/functions/mbfuncinput.c ****     USHORT          usRegCount;
  63:freemodbus-v1.5.0/modbus/functions/mbfuncinput.c ****     UCHAR          *pucFrameCur;
  64:freemodbus-v1.5.0/modbus/functions/mbfuncinput.c **** 
  65:freemodbus-v1.5.0/modbus/functions/mbfuncinput.c ****     eMBException    eStatus = MB_EX_NONE;
  66:freemodbus-v1.5.0/modbus/functions/mbfuncinput.c ****     eMBErrorCode    eRegStatus;
  67:freemodbus-v1.5.0/modbus/functions/mbfuncinput.c **** 
  68:freemodbus-v1.5.0/modbus/functions/mbfuncinput.c ****     if( *usLen == ( MB_PDU_FUNC_READ_SIZE + MB_PDU_SIZE_MIN ) )
  93              		.loc 1 68 0
  94 0000 0B88     		ldrh	r3, [r1]	@ *usLen_4(D), *usLen_4(D)
  95 0002 052B     		cmp	r3, #5	@ *usLen_4(D),
  60:freemodbus-v1.5.0/modbus/functions/mbfuncinput.c ****     USHORT          usRegAddress;
  96              		.loc 1 60 0
  97 0004 70B5     		push	{r4, r5, r6, lr}	@
  98              		.cfi_def_cfa_offset 16
  99              		.cfi_offset 4, -16
 100              		.cfi_offset 5, -12
 101              		.cfi_offset 6, -8
 102              		.cfi_offset 14, -4
ARM GAS  C:\cygwin\tmp\ccaf6M7x.s 			page 4


  60:freemodbus-v1.5.0/modbus/functions/mbfuncinput.c ****     USHORT          usRegAddress;
 103              		.loc 1 60 0
 104 0006 0C46     		mov	r4, r1	@ usLen, usLen
 105              		.loc 1 68 0
 106 0008 24D1     		bne	.L5	@,
  69:freemodbus-v1.5.0/modbus/functions/mbfuncinput.c ****     {
  70:freemodbus-v1.5.0/modbus/functions/mbfuncinput.c ****         usRegAddress = ( USHORT )( pucFrame[MB_PDU_FUNC_READ_ADDR_OFF] << 8 );
  71:freemodbus-v1.5.0/modbus/functions/mbfuncinput.c ****         usRegAddress |= ( USHORT )( pucFrame[MB_PDU_FUNC_READ_ADDR_OFF + 1] );
  72:freemodbus-v1.5.0/modbus/functions/mbfuncinput.c ****         usRegAddress++;
  73:freemodbus-v1.5.0/modbus/functions/mbfuncinput.c **** 
  74:freemodbus-v1.5.0/modbus/functions/mbfuncinput.c ****         usRegCount = ( USHORT )( pucFrame[MB_PDU_FUNC_READ_REGCNT_OFF] << 8 );
 107              		.loc 1 74 0
 108 000a C578     		ldrb	r5, [r0, #3]	@ zero_extendqisi2	@ MEM[(UCHAR *)pucFrame_6(D) + 3B], MEM[(UCHAR *)pucFrame_6(D
  75:freemodbus-v1.5.0/modbus/functions/mbfuncinput.c ****         usRegCount |= ( USHORT )( pucFrame[MB_PDU_FUNC_READ_REGCNT_OFF + 1] );
 109              		.loc 1 75 0
 110 000c 0279     		ldrb	r2, [r0, #4]	@ zero_extendqisi2	@ MEM[(UCHAR *)pucFrame_6(D) + 4B], MEM[(UCHAR *)pucFrame_6(D
  70:freemodbus-v1.5.0/modbus/functions/mbfuncinput.c ****         usRegAddress |= ( USHORT )( pucFrame[MB_PDU_FUNC_READ_ADDR_OFF + 1] );
 111              		.loc 1 70 0
 112 000e 4178     		ldrb	r1, [r0, #1]	@ zero_extendqisi2	@ D.5094, MEM[(UCHAR *)pucFrame_6(D) + 1B]
 113              	.LVL1:
  71:freemodbus-v1.5.0/modbus/functions/mbfuncinput.c ****         usRegAddress++;
 114              		.loc 1 71 0
 115 0010 8378     		ldrb	r3, [r0, #2]	@ zero_extendqisi2	@ D.5094, MEM[(UCHAR *)pucFrame_6(D) + 2B]
 116              	.LVL2:
 117              		.loc 1 75 0
 118 0012 42EA0522 		orr	r2, r2, r5, lsl #8	@, usRegCount, MEM[(UCHAR *)pucFrame_6(D) + 4B], MEM[(UCHAR *)pucFrame_6(D)
 119              	.LVL3:
  76:freemodbus-v1.5.0/modbus/functions/mbfuncinput.c **** 
  77:freemodbus-v1.5.0/modbus/functions/mbfuncinput.c ****         /* Check if the number of registers to read is valid. If not
  78:freemodbus-v1.5.0/modbus/functions/mbfuncinput.c ****          * return Modbus illegal data value exception. 
  79:freemodbus-v1.5.0/modbus/functions/mbfuncinput.c ****          */
  80:freemodbus-v1.5.0/modbus/functions/mbfuncinput.c ****         if( ( usRegCount >= 1 )
 120              		.loc 1 80 0
 121 0016 551E     		subs	r5, r2, #1	@ tmp148, usRegCount,
 122 0018 7B2D     		cmp	r5, #123	@ tmp148,
 123 001a 1BD8     		bhi	.L5	@,
 124              	.LVL4:
  81:freemodbus-v1.5.0/modbus/functions/mbfuncinput.c ****             && ( usRegCount < MB_PDU_FUNC_READ_REGCNT_MAX ) )
  82:freemodbus-v1.5.0/modbus/functions/mbfuncinput.c ****         {
  83:freemodbus-v1.5.0/modbus/functions/mbfuncinput.c ****             /* Set the current PDU data pointer to the beginning. */
  84:freemodbus-v1.5.0/modbus/functions/mbfuncinput.c ****             pucFrameCur = &pucFrame[MB_PDU_FUNC_OFF];
  85:freemodbus-v1.5.0/modbus/functions/mbfuncinput.c ****             *usLen = MB_PDU_FUNC_OFF;
 125              		.loc 1 85 0
 126 001c 0025     		movs	r5, #0	@ tmp150,
 127 001e 2580     		strh	r5, [r4]	@ movhi	@ tmp150, *usLen_4(D)
 128              	.LVL5:
  86:freemodbus-v1.5.0/modbus/functions/mbfuncinput.c **** 
  87:freemodbus-v1.5.0/modbus/functions/mbfuncinput.c ****             /* First byte contains the function code. */
  88:freemodbus-v1.5.0/modbus/functions/mbfuncinput.c ****             *pucFrameCur++ = MB_FUNC_READ_INPUT_REGISTER;
 129              		.loc 1 88 0
 130 0020 0425     		movs	r5, #4	@ tmp151,
 131 0022 0570     		strb	r5, [r0]	@ tmp151, *pucFrame_6(D)
  89:freemodbus-v1.5.0/modbus/functions/mbfuncinput.c ****             *usLen += 1;
 132              		.loc 1 89 0
 133 0024 2588     		ldrh	r5, [r4]	@, *usLen_4(D)
  90:freemodbus-v1.5.0/modbus/functions/mbfuncinput.c **** 
  91:freemodbus-v1.5.0/modbus/functions/mbfuncinput.c ****             /* Second byte in the response contain the number of bytes. */
ARM GAS  C:\cygwin\tmp\ccaf6M7x.s 			page 5


  92:freemodbus-v1.5.0/modbus/functions/mbfuncinput.c ****             *pucFrameCur++ = ( UCHAR )( usRegCount * 2 );
 134              		.loc 1 92 0
 135 0026 5600     		lsls	r6, r2, #1	@ tmp157, usRegCount,
  89:freemodbus-v1.5.0/modbus/functions/mbfuncinput.c ****             *usLen += 1;
 136              		.loc 1 89 0
 137 0028 0135     		adds	r5, r5, #1	@ tmp154, *usLen_4(D),
 138 002a 2580     		strh	r5, [r4]	@ movhi	@ tmp154, *usLen_4(D)
 139              	.LVL6:
 140              		.loc 1 92 0
 141 002c 4670     		strb	r6, [r0, #1]	@ tmp157, MEM[(UCHAR *)pucFrame_6(D) + 1B]
  93:freemodbus-v1.5.0/modbus/functions/mbfuncinput.c ****             *usLen += 1;
 142              		.loc 1 93 0
 143 002e 2588     		ldrh	r5, [r4]	@, *usLen_4(D)
  71:freemodbus-v1.5.0/modbus/functions/mbfuncinput.c ****         usRegAddress++;
 144              		.loc 1 71 0
 145 0030 43EA0121 		orr	r1, r3, r1, lsl #8	@, usRegAddress, D.5094, D.5094,
 146              	.LVL7:
 147              		.loc 1 93 0
 148 0034 0135     		adds	r5, r5, #1	@ tmp160, *usLen_4(D),
  72:freemodbus-v1.5.0/modbus/functions/mbfuncinput.c **** 
 149              		.loc 1 72 0
 150 0036 0131     		adds	r1, r1, #1	@ tmp167, usRegAddress,
 151              		.loc 1 93 0
 152 0038 2580     		strh	r5, [r4]	@ movhi	@ tmp160, *usLen_4(D)
  94:freemodbus-v1.5.0/modbus/functions/mbfuncinput.c **** 
  95:freemodbus-v1.5.0/modbus/functions/mbfuncinput.c ****             eRegStatus =
 153              		.loc 1 95 0
 154 003a 0230     		adds	r0, r0, #2	@, pucFrame,
 155              	.LVL8:
 156 003c 89B2     		uxth	r1, r1	@, tmp167
 157 003e FFF7FEFF 		bl	eMBRegInputCB	@
 158              	.LVL9:
  96:freemodbus-v1.5.0/modbus/functions/mbfuncinput.c ****                 eMBRegInputCB( pucFrameCur, usRegAddress, usRegCount );
  97:freemodbus-v1.5.0/modbus/functions/mbfuncinput.c **** 
  98:freemodbus-v1.5.0/modbus/functions/mbfuncinput.c ****             /* If an error occured convert it into a Modbus exception. */
  99:freemodbus-v1.5.0/modbus/functions/mbfuncinput.c ****             if( eRegStatus != MB_ENOERR )
 159              		.loc 1 99 0
 160 0042 18B1     		cbz	r0, .L3	@,
 100:freemodbus-v1.5.0/modbus/functions/mbfuncinput.c ****             {
 101:freemodbus-v1.5.0/modbus/functions/mbfuncinput.c ****                 eStatus = prveMBError2Exception( eRegStatus );
 102:freemodbus-v1.5.0/modbus/functions/mbfuncinput.c ****             }
 103:freemodbus-v1.5.0/modbus/functions/mbfuncinput.c ****             else
 104:freemodbus-v1.5.0/modbus/functions/mbfuncinput.c ****             {
 105:freemodbus-v1.5.0/modbus/functions/mbfuncinput.c ****                 *usLen += usRegCount * 2;
 106:freemodbus-v1.5.0/modbus/functions/mbfuncinput.c ****             }
 107:freemodbus-v1.5.0/modbus/functions/mbfuncinput.c ****         }
 108:freemodbus-v1.5.0/modbus/functions/mbfuncinput.c ****         else
 109:freemodbus-v1.5.0/modbus/functions/mbfuncinput.c ****         {
 110:freemodbus-v1.5.0/modbus/functions/mbfuncinput.c ****             eStatus = MB_EX_ILLEGAL_DATA_VALUE;
 111:freemodbus-v1.5.0/modbus/functions/mbfuncinput.c ****         }
 112:freemodbus-v1.5.0/modbus/functions/mbfuncinput.c ****     }
 113:freemodbus-v1.5.0/modbus/functions/mbfuncinput.c ****     else
 114:freemodbus-v1.5.0/modbus/functions/mbfuncinput.c ****     {
 115:freemodbus-v1.5.0/modbus/functions/mbfuncinput.c ****         /* Can't be a valid read input register request because the length
 116:freemodbus-v1.5.0/modbus/functions/mbfuncinput.c ****          * is incorrect. */
 117:freemodbus-v1.5.0/modbus/functions/mbfuncinput.c ****         eStatus = MB_EX_ILLEGAL_DATA_VALUE;
 118:freemodbus-v1.5.0/modbus/functions/mbfuncinput.c ****     }
ARM GAS  C:\cygwin\tmp\ccaf6M7x.s 			page 6


 119:freemodbus-v1.5.0/modbus/functions/mbfuncinput.c ****     return eStatus;
 120:freemodbus-v1.5.0/modbus/functions/mbfuncinput.c **** }
 161              		.loc 1 120 0
 162 0044 BDE87040 		pop	{r4, r5, r6, lr}	@
 163              		.cfi_remember_state
 164              		.cfi_restore 14
 165              		.cfi_restore 6
 166              		.cfi_restore 5
 167              		.cfi_restore 4
 168              		.cfi_def_cfa_offset 0
 169              	.LVL10:
 101:freemodbus-v1.5.0/modbus/functions/mbfuncinput.c ****             }
 170              		.loc 1 101 0
 171 0048 FFF7FEBF 		b	prveMBError2Exception	@
 172              	.LVL11:
 173              	.L3:
 174              		.cfi_restore_state
 105:freemodbus-v1.5.0/modbus/functions/mbfuncinput.c ****             }
 175              		.loc 1 105 0
 176 004c 2288     		ldrh	r2, [r4]	@, *usLen_4(D)
 177 004e 3244     		add	r2, r2, r6	@ tmp174, tmp157
 178 0050 2280     		strh	r2, [r4]	@ movhi	@ tmp174, *usLen_4(D)
 179 0052 70BD     		pop	{r4, r5, r6, pc}	@
 180              	.LVL12:
 181              	.L5:
 117:freemodbus-v1.5.0/modbus/functions/mbfuncinput.c ****     }
 182              		.loc 1 117 0
 183 0054 0320     		movs	r0, #3	@ eStatus,
 184              	.LVL13:
 185              		.loc 1 120 0
 186 0056 70BD     		pop	{r4, r5, r6, pc}	@
 187              		.cfi_endproc
 188              	.LFE0:
 189              		.size	eMBFuncReadInputRegister, .-eMBFuncReadInputRegister
 190              		.text
 191              	.Letext0:
 192              		.file 2 "c:\\program files\\gcc-arm-none-eabi-4_9-2014\\arm-none-eabi\\include\\machine\\_default_
 193              		.file 3 "c:\\program files\\gcc-arm-none-eabi-4_9-2014\\arm-none-eabi\\include\\stdint.h"
 194              		.file 4 "freemodbus-v1.5.0/port/port.h"
 195              		.file 5 "freemodbus-v1.5.0/modbus/include/mbproto.h"
 196              		.file 6 "freemodbus-v1.5.0/modbus/include/mb.h"