ARM GAS  C:\cygwin\tmp\ccar9TVk.s 			page 1


   1              		.syntax unified
   2              		.cpu cortex-m4
   3              		.fpu softvfp
   4              		.eabi_attribute 20, 1	@ Tag_ABI_FP_denormal
   5              		.eabi_attribute 21, 1	@ Tag_ABI_FP_exceptions
   6              		.eabi_attribute 23, 3	@ Tag_ABI_FP_number_model
   7              		.eabi_attribute 24, 1	@ Tag_ABI_align8_needed
   8              		.eabi_attribute 25, 1	@ Tag_ABI_align8_preserved
   9              		.eabi_attribute 26, 1	@ Tag_ABI_enum_size
  10              		.eabi_attribute 30, 4	@ Tag_ABI_optimization_goals
  11              		.eabi_attribute 34, 1	@ Tag_CPU_unaligned_access
  12              		.eabi_attribute 18, 4	@ Tag_ABI_PCS_wchar_t
  13              		.file	"mbfuncdisc.c"
  14              	@ GNU C (GNU Tools for ARM Embedded Processors) version 4.9.3 20141119 (release) [ARM/embedded-4_9-
  15              	@	compiled by GNU C version 4.7.4, GMP version 4.3.2, MPFR version 2.4.2, MPC version 0.8.1
  16              	@ GGC heuristics: --param ggc-min-expand=100 --param ggc-min-heapsize=131072
  17              	@ options passed:  -I . -I Inc -I gui -I emWin -I emWin/config
  18              	@ -I freemodbus-v1.5.0/port -I freemodbus-v1.5.0/modbus/include
  19              	@ -I freemodbus-v1.5.0/modbus/ascii -I freemodbus-v1.5.0/modbus/rtu
  20              	@ -I ../STM32Cube_FW_F4_V1.4.0/Drivers/CMSIS/Include
  21              	@ -I ../STM32Cube_FW_F4_V1.4.0/Drivers/CMSIS/Device/ST/STM32F4xx/Include
  22              	@ -I ../STM32Cube_FW_F4_V1.4.0/Drivers/STM32F4xx_HAL_Driver/Inc
  23              	@ -I ../STM32Cube_FW_F4_V1.4.0/Drivers/CMSIS/Include
  24              	@ -I ../STM32Cube_FW_F4_V1.4.0/Middlewares/ST/STemWin/inc
  25              	@ -I ../STM32Cube_FW_F4_V1.4.0/Middlewares/Third_Party/FatFs/src
  26              	@ -I ../STM32Cube_FW_F4_V1.4.0/Middlewares/Third_Party/FatFs/src/drivers/sd
  27              	@ -I ./drivers/display -imultilib armv7e-m
  28              	@ -iprefix c:\program files\gcc-arm-none-eabi-4_9-2014\bin\../lib/gcc/arm-none-eabi/4.9.3/
  29              	@ -isysroot c:\program files\gcc-arm-none-eabi-4_9-2014\bin\../arm-none-eabi
  30              	@ -MD out/mbfuncdisc.d -MF out/mbfuncdisc.d -MP -MQ out/mbfuncdisc.o
  31              	@ -D__USES_INITFINI__ -D USE_HAL_DRIVER -D STM32F4XX -D HSE_VALUE=25000000
  32              	@ -D STM32F437xx -D USE_FULL_ASSERT -D __GNUC__ -D __VFP_FP__
  33              	@ -D ARM_MATH_CM4 -D LOG_INFO
  34              	@ freemodbus-v1.5.0/modbus/functions/mbfuncdisc.c -mcpu=cortex-m4 -mthumb
  35              	@ -auxbase-strip out/mbfuncdisc.o -g -ggdb3 -Os -Os -Wall
  36              	@ -Wstrict-prototypes -Wextra -std=gnu90 -ffunction-sections
  37              	@ -fdata-sections -fverbose-asm
  38              	@ options enabled:  -faggressive-loop-optimizations -fauto-inc-dec
  39              	@ -fbranch-count-reg -fcaller-saves -fcombine-stack-adjustments -fcommon
  40              	@ -fcompare-elim -fcprop-registers -fcrossjumping -fcse-follow-jumps
  41              	@ -fdata-sections -fdefer-pop -fdelete-null-pointer-checks -fdevirtualize
  42              	@ -fdevirtualize-speculatively -fdwarf2-cfi-asm -fearly-inlining
  43              	@ -feliminate-unused-debug-types -fexpensive-optimizations
  44              	@ -fforward-propagate -ffunction-cse -ffunction-sections -fgcse -fgcse-lm
  45              	@ -fgnu-runtime -fgnu-unique -fguess-branch-probability
  46              	@ -fhoist-adjacent-loads -fident -fif-conversion -fif-conversion2
  47              	@ -findirect-inlining -finline -finline-atomics -finline-functions
  48              	@ -finline-functions-called-once -finline-small-functions -fipa-cp
  49              	@ -fipa-profile -fipa-pure-const -fipa-reference -fipa-sra
  50              	@ -fira-hoist-pressure -fira-share-save-slots -fira-share-spill-slots
  51              	@ -fisolate-erroneous-paths-dereference -fivopts -fkeep-static-consts
  52              	@ -fleading-underscore -fmath-errno -fmerge-constants -fmerge-debug-strings
  53              	@ -fomit-frame-pointer -foptimize-sibling-calls -fpartial-inlining
  54              	@ -fpeephole -fpeephole2 -fprefetch-loop-arrays -freg-struct-return
  55              	@ -freorder-blocks -freorder-functions -frerun-cse-after-loop
  56              	@ -fsched-critical-path-heuristic -fsched-dep-count-heuristic
  57              	@ -fsched-group-heuristic -fsched-interblock -fsched-last-insn-heuristic
ARM GAS  C:\cygwin\tmp\ccar9TVk.s 			page 2


  58              	@ -fsched-pressure -fsched-rank-heuristic -fsched-spec
  59              	@ -fsched-spec-insn-heuristic -fsched-stalled-insns-dep -fschedule-insns2
  60              	@ -fsection-anchors -fshow-column -fsigned-zeros -fsplit-ivs-in-unroller
  61              	@ -fsplit-wide-types -fstrict-aliasing -fstrict-overflow
  62              	@ -fstrict-volatile-bitfields -fsync-libcalls -fthread-jumps
  63              	@ -ftoplevel-reorder -ftrapping-math -ftree-bit-ccp -ftree-builtin-call-dce
  64              	@ -ftree-ccp -ftree-ch -ftree-coalesce-vars -ftree-copy-prop
  65              	@ -ftree-copyrename -ftree-cselim -ftree-dce -ftree-dominator-opts
  66              	@ -ftree-dse -ftree-forwprop -ftree-fre -ftree-loop-if-convert
  67              	@ -ftree-loop-im -ftree-loop-ivcanon -ftree-loop-optimize
  68              	@ -ftree-parallelize-loops= -ftree-phiprop -ftree-pre -ftree-pta
  69              	@ -ftree-reassoc -ftree-scev-cprop -ftree-sink -ftree-slsr -ftree-sra
  70              	@ -ftree-switch-conversion -ftree-tail-merge -ftree-ter -ftree-vrp
  71              	@ -funit-at-a-time -fvar-tracking -fvar-tracking-assignments -fverbose-asm
  72              	@ -fzero-initialized-in-bss -mlittle-endian -mlra
  73              	@ -mpic-data-is-text-relative -msched-prolog -mthumb -munaligned-access
  74              	@ -mvectorize-with-neon-quad
  75              	
  76              		.text
  77              	.Ltext0:
  78              		.cfi_sections	.debug_frame
  79              		.section	.text.eMBFuncReadDiscreteInputs,"ax",%progbits
  80              		.align	1
  81              		.global	eMBFuncReadDiscreteInputs
  82              		.thumb
  83              		.thumb_func
  84              		.type	eMBFuncReadDiscreteInputs, %function
  85              	eMBFuncReadDiscreteInputs:
  86              	.LFB0:
  87              		.file 1 "freemodbus-v1.5.0/modbus/functions/mbfuncdisc.c"
   1:freemodbus-v1.5.0/modbus/functions/mbfuncdisc.c ****  /*
   2:freemodbus-v1.5.0/modbus/functions/mbfuncdisc.c ****   * FreeRTOS Modbus Libary: A Modbus serial implementation for FreeRTOS
   3:freemodbus-v1.5.0/modbus/functions/mbfuncdisc.c ****   * Copyright (C) 2006 Christian Walter <wolti@sil.at>
   4:freemodbus-v1.5.0/modbus/functions/mbfuncdisc.c ****   *
   5:freemodbus-v1.5.0/modbus/functions/mbfuncdisc.c ****   * This library is free software; you can redistribute it and/or
   6:freemodbus-v1.5.0/modbus/functions/mbfuncdisc.c ****   * modify it under the terms of the GNU Lesser General Public
   7:freemodbus-v1.5.0/modbus/functions/mbfuncdisc.c ****   * License as published by the Free Software Foundation; either
   8:freemodbus-v1.5.0/modbus/functions/mbfuncdisc.c ****   * version 2.1 of the License, or (at your option) any later version.
   9:freemodbus-v1.5.0/modbus/functions/mbfuncdisc.c ****   *
  10:freemodbus-v1.5.0/modbus/functions/mbfuncdisc.c ****   * This library is distributed in the hope that it will be useful,
  11:freemodbus-v1.5.0/modbus/functions/mbfuncdisc.c ****   * but WITHOUT ANY WARRANTY; without even the implied warranty of
  12:freemodbus-v1.5.0/modbus/functions/mbfuncdisc.c ****   * MERCHANTABILITY or FITNESS FOR A PARTICULAR PURPOSE.  See the GNU
  13:freemodbus-v1.5.0/modbus/functions/mbfuncdisc.c ****   * Lesser General Public License for more details.
  14:freemodbus-v1.5.0/modbus/functions/mbfuncdisc.c ****   *
  15:freemodbus-v1.5.0/modbus/functions/mbfuncdisc.c ****   * You should have received a copy of the GNU Lesser General Public
  16:freemodbus-v1.5.0/modbus/functions/mbfuncdisc.c ****   * License along with this library; if not, write to the Free Software
  17:freemodbus-v1.5.0/modbus/functions/mbfuncdisc.c ****   * Foundation, Inc., 51 Franklin St, Fifth Floor, Boston, MA  02110-1301  USA
  18:freemodbus-v1.5.0/modbus/functions/mbfuncdisc.c ****   */
  19:freemodbus-v1.5.0/modbus/functions/mbfuncdisc.c **** 
  20:freemodbus-v1.5.0/modbus/functions/mbfuncdisc.c **** 
  21:freemodbus-v1.5.0/modbus/functions/mbfuncdisc.c **** 
  22:freemodbus-v1.5.0/modbus/functions/mbfuncdisc.c **** /* ----------------------- System includes ----------------------------------*/
  23:freemodbus-v1.5.0/modbus/functions/mbfuncdisc.c **** #include "stdlib.h"
  24:freemodbus-v1.5.0/modbus/functions/mbfuncdisc.c **** #include "string.h"
  25:freemodbus-v1.5.0/modbus/functions/mbfuncdisc.c **** 
  26:freemodbus-v1.5.0/modbus/functions/mbfuncdisc.c **** /* ----------------------- Platform includes --------------------------------*/
  27:freemodbus-v1.5.0/modbus/functions/mbfuncdisc.c **** #include "port.h"
ARM GAS  C:\cygwin\tmp\ccar9TVk.s 			page 3


  28:freemodbus-v1.5.0/modbus/functions/mbfuncdisc.c **** 
  29:freemodbus-v1.5.0/modbus/functions/mbfuncdisc.c **** /* ----------------------- Modbus includes ----------------------------------*/
  30:freemodbus-v1.5.0/modbus/functions/mbfuncdisc.c **** #include "mb.h"
  31:freemodbus-v1.5.0/modbus/functions/mbfuncdisc.c **** #include "mbframe.h"
  32:freemodbus-v1.5.0/modbus/functions/mbfuncdisc.c **** #include "mbproto.h"
  33:freemodbus-v1.5.0/modbus/functions/mbfuncdisc.c **** #include "mbconfig.h"
  34:freemodbus-v1.5.0/modbus/functions/mbfuncdisc.c **** 
  35:freemodbus-v1.5.0/modbus/functions/mbfuncdisc.c **** /* ----------------------- Defines ------------------------------------------*/
  36:freemodbus-v1.5.0/modbus/functions/mbfuncdisc.c **** #define MB_PDU_FUNC_READ_ADDR_OFF           ( MB_PDU_DATA_OFF )
  37:freemodbus-v1.5.0/modbus/functions/mbfuncdisc.c **** #define MB_PDU_FUNC_READ_DISCCNT_OFF        ( MB_PDU_DATA_OFF + 2 )
  38:freemodbus-v1.5.0/modbus/functions/mbfuncdisc.c **** #define MB_PDU_FUNC_READ_SIZE               ( 4 )
  39:freemodbus-v1.5.0/modbus/functions/mbfuncdisc.c **** #define MB_PDU_FUNC_READ_DISCCNT_MAX        ( 0x07D0 )
  40:freemodbus-v1.5.0/modbus/functions/mbfuncdisc.c **** 
  41:freemodbus-v1.5.0/modbus/functions/mbfuncdisc.c **** /* ----------------------- Static functions ---------------------------------*/
  42:freemodbus-v1.5.0/modbus/functions/mbfuncdisc.c **** eMBException    prveMBError2Exception( eMBErrorCode eErrorCode );
  43:freemodbus-v1.5.0/modbus/functions/mbfuncdisc.c **** 
  44:freemodbus-v1.5.0/modbus/functions/mbfuncdisc.c **** /* ----------------------- Start implementation -----------------------------*/
  45:freemodbus-v1.5.0/modbus/functions/mbfuncdisc.c **** 
  46:freemodbus-v1.5.0/modbus/functions/mbfuncdisc.c **** #if MB_FUNC_READ_COILS_ENABLED > 0
  47:freemodbus-v1.5.0/modbus/functions/mbfuncdisc.c **** 
  48:freemodbus-v1.5.0/modbus/functions/mbfuncdisc.c **** eMBException
  49:freemodbus-v1.5.0/modbus/functions/mbfuncdisc.c **** eMBFuncReadDiscreteInputs( UCHAR * pucFrame, USHORT * usLen )
  50:freemodbus-v1.5.0/modbus/functions/mbfuncdisc.c **** {
  88              		.loc 1 50 0
  89              		.cfi_startproc
  90              		@ args = 0, pretend = 0, frame = 0
  91              		@ frame_needed = 0, uses_anonymous_args = 0
  92              	.LVL0:
  51:freemodbus-v1.5.0/modbus/functions/mbfuncdisc.c ****     USHORT          usRegAddress;
  52:freemodbus-v1.5.0/modbus/functions/mbfuncdisc.c ****     USHORT          usDiscreteCnt;
  53:freemodbus-v1.5.0/modbus/functions/mbfuncdisc.c ****     UCHAR           ucNBytes;
  54:freemodbus-v1.5.0/modbus/functions/mbfuncdisc.c ****     UCHAR          *pucFrameCur;
  55:freemodbus-v1.5.0/modbus/functions/mbfuncdisc.c **** 
  56:freemodbus-v1.5.0/modbus/functions/mbfuncdisc.c ****     eMBException    eStatus = MB_EX_NONE;
  57:freemodbus-v1.5.0/modbus/functions/mbfuncdisc.c ****     eMBErrorCode    eRegStatus;
  58:freemodbus-v1.5.0/modbus/functions/mbfuncdisc.c **** 
  59:freemodbus-v1.5.0/modbus/functions/mbfuncdisc.c ****     if( *usLen == ( MB_PDU_FUNC_READ_SIZE + MB_PDU_SIZE_MIN ) )
  93              		.loc 1 59 0
  94 0000 0B88     		ldrh	r3, [r1]	@ *usLen_5(D), *usLen_5(D)
  95 0002 052B     		cmp	r3, #5	@ *usLen_5(D),
  50:freemodbus-v1.5.0/modbus/functions/mbfuncdisc.c ****     USHORT          usRegAddress;
  96              		.loc 1 50 0
  97 0004 70B5     		push	{r4, r5, r6, lr}	@
  98              		.cfi_def_cfa_offset 16
  99              		.cfi_offset 4, -16
 100              		.cfi_offset 5, -12
 101              		.cfi_offset 6, -8
 102              		.cfi_offset 14, -4
  50:freemodbus-v1.5.0/modbus/functions/mbfuncdisc.c ****     USHORT          usRegAddress;
 103              		.loc 1 50 0
 104 0006 0C46     		mov	r4, r1	@ usLen, usLen
 105              		.loc 1 59 0
 106 0008 2DD1     		bne	.L7	@,
  60:freemodbus-v1.5.0/modbus/functions/mbfuncdisc.c ****     {
  61:freemodbus-v1.5.0/modbus/functions/mbfuncdisc.c ****         usRegAddress = ( USHORT )( pucFrame[MB_PDU_FUNC_READ_ADDR_OFF] << 8 );
  62:freemodbus-v1.5.0/modbus/functions/mbfuncdisc.c ****         usRegAddress |= ( USHORT )( pucFrame[MB_PDU_FUNC_READ_ADDR_OFF + 1] );
  63:freemodbus-v1.5.0/modbus/functions/mbfuncdisc.c ****         usRegAddress++;
ARM GAS  C:\cygwin\tmp\ccar9TVk.s 			page 4


  64:freemodbus-v1.5.0/modbus/functions/mbfuncdisc.c **** 
  65:freemodbus-v1.5.0/modbus/functions/mbfuncdisc.c ****         usDiscreteCnt = ( USHORT )( pucFrame[MB_PDU_FUNC_READ_DISCCNT_OFF] << 8 );
 107              		.loc 1 65 0
 108 000a C578     		ldrb	r5, [r0, #3]	@ zero_extendqisi2	@ MEM[(UCHAR *)pucFrame_7(D) + 3B], MEM[(UCHAR *)pucFrame_7(D
  66:freemodbus-v1.5.0/modbus/functions/mbfuncdisc.c ****         usDiscreteCnt |= ( USHORT )( pucFrame[MB_PDU_FUNC_READ_DISCCNT_OFF + 1] );
 109              		.loc 1 66 0
 110 000c 0279     		ldrb	r2, [r0, #4]	@ zero_extendqisi2	@ MEM[(UCHAR *)pucFrame_7(D) + 4B], MEM[(UCHAR *)pucFrame_7(D
  61:freemodbus-v1.5.0/modbus/functions/mbfuncdisc.c ****         usRegAddress |= ( USHORT )( pucFrame[MB_PDU_FUNC_READ_ADDR_OFF + 1] );
 111              		.loc 1 61 0
 112 000e 4178     		ldrb	r1, [r0, #1]	@ zero_extendqisi2	@ D.5100, MEM[(UCHAR *)pucFrame_7(D) + 1B]
 113              	.LVL1:
  62:freemodbus-v1.5.0/modbus/functions/mbfuncdisc.c ****         usRegAddress++;
 114              		.loc 1 62 0
 115 0010 8378     		ldrb	r3, [r0, #2]	@ zero_extendqisi2	@ D.5100, MEM[(UCHAR *)pucFrame_7(D) + 2B]
 116              	.LVL2:
 117              		.loc 1 66 0
 118 0012 42EA0522 		orr	r2, r2, r5, lsl #8	@, usDiscreteCnt, MEM[(UCHAR *)pucFrame_7(D) + 4B], MEM[(UCHAR *)pucFrame_7
 119              	.LVL3:
  67:freemodbus-v1.5.0/modbus/functions/mbfuncdisc.c **** 
  68:freemodbus-v1.5.0/modbus/functions/mbfuncdisc.c ****         /* Check if the number of registers to read is valid. If not
  69:freemodbus-v1.5.0/modbus/functions/mbfuncdisc.c ****          * return Modbus illegal data value exception. 
  70:freemodbus-v1.5.0/modbus/functions/mbfuncdisc.c ****          */
  71:freemodbus-v1.5.0/modbus/functions/mbfuncdisc.c ****         if( ( usDiscreteCnt >= 1 ) &&
 120              		.loc 1 71 0
 121 0016 551E     		subs	r5, r2, #1	@ tmp150, usDiscreteCnt,
 122 0018 ADB2     		uxth	r5, r5	@ tmp151, tmp150
 123 001a 40F2CE76 		movw	r6, #1998	@ tmp152,
 124 001e B542     		cmp	r5, r6	@ tmp151, tmp152
 125 0020 21D8     		bhi	.L7	@,
 126              	.LVL4:
  72:freemodbus-v1.5.0/modbus/functions/mbfuncdisc.c ****             ( usDiscreteCnt < MB_PDU_FUNC_READ_DISCCNT_MAX ) )
  73:freemodbus-v1.5.0/modbus/functions/mbfuncdisc.c ****         {
  74:freemodbus-v1.5.0/modbus/functions/mbfuncdisc.c ****             /* Set the current PDU data pointer to the beginning. */
  75:freemodbus-v1.5.0/modbus/functions/mbfuncdisc.c ****             pucFrameCur = &pucFrame[MB_PDU_FUNC_OFF];
  76:freemodbus-v1.5.0/modbus/functions/mbfuncdisc.c ****             *usLen = MB_PDU_FUNC_OFF;
 127              		.loc 1 76 0
 128 0022 0025     		movs	r5, #0	@ tmp154,
 129 0024 2580     		strh	r5, [r4]	@ movhi	@ tmp154, *usLen_5(D)
 130              	.LVL5:
  77:freemodbus-v1.5.0/modbus/functions/mbfuncdisc.c **** 
  78:freemodbus-v1.5.0/modbus/functions/mbfuncdisc.c ****             /* First byte contains the function code. */
  79:freemodbus-v1.5.0/modbus/functions/mbfuncdisc.c ****             *pucFrameCur++ = MB_FUNC_READ_DISCRETE_INPUTS;
 131              		.loc 1 79 0
 132 0026 0225     		movs	r5, #2	@ tmp155,
 133 0028 0570     		strb	r5, [r0]	@ tmp155, *pucFrame_7(D)
  80:freemodbus-v1.5.0/modbus/functions/mbfuncdisc.c ****             *usLen += 1;
 134              		.loc 1 80 0
 135 002a 2588     		ldrh	r5, [r4]	@, *usLen_5(D)
 136 002c 0135     		adds	r5, r5, #1	@ tmp158, *usLen_5(D),
 137 002e 2580     		strh	r5, [r4]	@ movhi	@ tmp158, *usLen_5(D)
  81:freemodbus-v1.5.0/modbus/functions/mbfuncdisc.c **** 
  82:freemodbus-v1.5.0/modbus/functions/mbfuncdisc.c ****             /* Test if the quantity of coils is a multiple of 8. If not last
  83:freemodbus-v1.5.0/modbus/functions/mbfuncdisc.c ****              * byte is only partially field with unused coils set to zero. */
  84:freemodbus-v1.5.0/modbus/functions/mbfuncdisc.c ****             if( ( usDiscreteCnt & 0x0007 ) != 0 )
 138              		.loc 1 84 0
 139 0030 12F0070F 		tst	r2, #7	@ usDiscreteCnt,
 140 0034 4FEAD205 		lsr	r5, r2, #3	@ tmp186, usDiscreteCnt,
ARM GAS  C:\cygwin\tmp\ccar9TVk.s 			page 5


  85:freemodbus-v1.5.0/modbus/functions/mbfuncdisc.c ****             {
  86:freemodbus-v1.5.0/modbus/functions/mbfuncdisc.c ****                 ucNBytes = ( UCHAR ) ( usDiscreteCnt / 8 + 1 );
 141              		.loc 1 86 0
 142 0038 18BF     		it	ne
 143 003a 0135     		addne	r5, r5, #1	@ tmp165, tmp186,
  87:freemodbus-v1.5.0/modbus/functions/mbfuncdisc.c ****             }
  88:freemodbus-v1.5.0/modbus/functions/mbfuncdisc.c ****             else
  89:freemodbus-v1.5.0/modbus/functions/mbfuncdisc.c ****             {
  90:freemodbus-v1.5.0/modbus/functions/mbfuncdisc.c ****                 ucNBytes = ( UCHAR ) ( usDiscreteCnt / 8 );
 144              		.loc 1 90 0
 145 003c EDB2     		uxtb	r5, r5	@ ucNBytes, tmp186
 146              	.LVL6:
  91:freemodbus-v1.5.0/modbus/functions/mbfuncdisc.c ****             }
  92:freemodbus-v1.5.0/modbus/functions/mbfuncdisc.c ****             *pucFrameCur++ = ucNBytes;
 147              		.loc 1 92 0
 148 003e 4570     		strb	r5, [r0, #1]	@ ucNBytes, MEM[(UCHAR *)pucFrame_7(D) + 1B]
  93:freemodbus-v1.5.0/modbus/functions/mbfuncdisc.c ****             *usLen += 1;
 149              		.loc 1 93 0
 150 0040 2688     		ldrh	r6, [r4]	@, *usLen_5(D)
  62:freemodbus-v1.5.0/modbus/functions/mbfuncdisc.c ****         usRegAddress++;
 151              		.loc 1 62 0
 152 0042 43EA0121 		orr	r1, r3, r1, lsl #8	@, usRegAddress, D.5100, D.5100,
 153              	.LVL7:
 154              		.loc 1 93 0
 155 0046 0136     		adds	r6, r6, #1	@ tmp170, *usLen_5(D),
  63:freemodbus-v1.5.0/modbus/functions/mbfuncdisc.c **** 
 156              		.loc 1 63 0
 157 0048 0131     		adds	r1, r1, #1	@ tmp177, usRegAddress,
 158              		.loc 1 93 0
 159 004a 2680     		strh	r6, [r4]	@ movhi	@ tmp170, *usLen_5(D)
  94:freemodbus-v1.5.0/modbus/functions/mbfuncdisc.c **** 
  95:freemodbus-v1.5.0/modbus/functions/mbfuncdisc.c ****             eRegStatus =
 160              		.loc 1 95 0
 161 004c 0230     		adds	r0, r0, #2	@, pucFrame,
 162              	.LVL8:
 163 004e 89B2     		uxth	r1, r1	@, tmp177
 164 0050 FFF7FEFF 		bl	eMBRegDiscreteCB	@
 165              	.LVL9:
  96:freemodbus-v1.5.0/modbus/functions/mbfuncdisc.c ****                 eMBRegDiscreteCB( pucFrameCur, usRegAddress, usDiscreteCnt );
  97:freemodbus-v1.5.0/modbus/functions/mbfuncdisc.c **** 
  98:freemodbus-v1.5.0/modbus/functions/mbfuncdisc.c ****             /* If an error occured convert it into a Modbus exception. */
  99:freemodbus-v1.5.0/modbus/functions/mbfuncdisc.c ****             if( eRegStatus != MB_ENOERR )
 166              		.loc 1 99 0
 167 0054 18B1     		cbz	r0, .L5	@,
 100:freemodbus-v1.5.0/modbus/functions/mbfuncdisc.c ****             {
 101:freemodbus-v1.5.0/modbus/functions/mbfuncdisc.c ****                 eStatus = prveMBError2Exception( eRegStatus );
 102:freemodbus-v1.5.0/modbus/functions/mbfuncdisc.c ****             }
 103:freemodbus-v1.5.0/modbus/functions/mbfuncdisc.c ****             else
 104:freemodbus-v1.5.0/modbus/functions/mbfuncdisc.c ****             {
 105:freemodbus-v1.5.0/modbus/functions/mbfuncdisc.c ****                 /* The response contains the function code, the starting address
 106:freemodbus-v1.5.0/modbus/functions/mbfuncdisc.c ****                  * and the quantity of registers. We reuse the old values in the 
 107:freemodbus-v1.5.0/modbus/functions/mbfuncdisc.c ****                  * buffer because they are still valid. */
 108:freemodbus-v1.5.0/modbus/functions/mbfuncdisc.c ****                 *usLen += ucNBytes;;
 109:freemodbus-v1.5.0/modbus/functions/mbfuncdisc.c ****             }
 110:freemodbus-v1.5.0/modbus/functions/mbfuncdisc.c ****         }
 111:freemodbus-v1.5.0/modbus/functions/mbfuncdisc.c ****         else
 112:freemodbus-v1.5.0/modbus/functions/mbfuncdisc.c ****         {
ARM GAS  C:\cygwin\tmp\ccar9TVk.s 			page 6


 113:freemodbus-v1.5.0/modbus/functions/mbfuncdisc.c ****             eStatus = MB_EX_ILLEGAL_DATA_VALUE;
 114:freemodbus-v1.5.0/modbus/functions/mbfuncdisc.c ****         }
 115:freemodbus-v1.5.0/modbus/functions/mbfuncdisc.c ****     }
 116:freemodbus-v1.5.0/modbus/functions/mbfuncdisc.c ****     else
 117:freemodbus-v1.5.0/modbus/functions/mbfuncdisc.c ****     {
 118:freemodbus-v1.5.0/modbus/functions/mbfuncdisc.c ****         /* Can't be a valid read coil register request because the length
 119:freemodbus-v1.5.0/modbus/functions/mbfuncdisc.c ****          * is incorrect. */
 120:freemodbus-v1.5.0/modbus/functions/mbfuncdisc.c ****         eStatus = MB_EX_ILLEGAL_DATA_VALUE;
 121:freemodbus-v1.5.0/modbus/functions/mbfuncdisc.c ****     }
 122:freemodbus-v1.5.0/modbus/functions/mbfuncdisc.c ****     return eStatus;
 123:freemodbus-v1.5.0/modbus/functions/mbfuncdisc.c **** }
 168              		.loc 1 123 0
 169 0056 BDE87040 		pop	{r4, r5, r6, lr}	@
 170              		.cfi_remember_state
 171              		.cfi_restore 14
 172              		.cfi_restore 6
 173              		.cfi_restore 5
 174              		.cfi_restore 4
 175              		.cfi_def_cfa_offset 0
 176              	.LVL10:
 101:freemodbus-v1.5.0/modbus/functions/mbfuncdisc.c ****             }
 177              		.loc 1 101 0
 178 005a FFF7FEBF 		b	prveMBError2Exception	@
 179              	.LVL11:
 180              	.L5:
 181              		.cfi_restore_state
 108:freemodbus-v1.5.0/modbus/functions/mbfuncdisc.c ****             }
 182              		.loc 1 108 0
 183 005e 2288     		ldrh	r2, [r4]	@, *usLen_5(D)
 184 0060 1544     		add	r5, r5, r2	@ tmp183, *usLen_5(D)
 185              	.LVL12:
 186 0062 2580     		strh	r5, [r4]	@ movhi	@ tmp183, *usLen_5(D)
 187 0064 70BD     		pop	{r4, r5, r6, pc}	@
 188              	.LVL13:
 189              	.L7:
 120:freemodbus-v1.5.0/modbus/functions/mbfuncdisc.c ****     }
 190              		.loc 1 120 0
 191 0066 0320     		movs	r0, #3	@ eStatus,
 192              	.LVL14:
 193              		.loc 1 123 0
 194 0068 70BD     		pop	{r4, r5, r6, pc}	@
 195              		.cfi_endproc
 196              	.LFE0:
 197              		.size	eMBFuncReadDiscreteInputs, .-eMBFuncReadDiscreteInputs
 198              		.text
 199              	.Letext0:
 200              		.file 2 "c:\\program files\\gcc-arm-none-eabi-4_9-2014\\arm-none-eabi\\include\\machine\\_default_
 201              		.file 3 "c:\\program files\\gcc-arm-none-eabi-4_9-2014\\arm-none-eabi\\include\\stdint.h"
 202              		.file 4 "freemodbus-v1.5.0/port/port.h"
 203              		.file 5 "freemodbus-v1.5.0/modbus/include/mbproto.h"
 204              		.file 6 "freemodbus-v1.5.0/modbus/include/mb.h"