ARM GAS  C:\cygwin\tmp\ccllvGde.s 			page 1


   1              		.syntax unified
   2              		.cpu cortex-m4
   3              		.fpu softvfp
   4              		.eabi_attribute 20, 1	@ Tag_ABI_FP_denormal
   5              		.eabi_attribute 21, 1	@ Tag_ABI_FP_exceptions
   6              		.eabi_attribute 23, 3	@ Tag_ABI_FP_number_model
   7              		.eabi_attribute 24, 1	@ Tag_ABI_align8_needed
   8              		.eabi_attribute 25, 1	@ Tag_ABI_align8_preserved
   9              		.eabi_attribute 26, 1	@ Tag_ABI_enum_size
  10              		.eabi_attribute 30, 4	@ Tag_ABI_optimization_goals
  11              		.eabi_attribute 34, 1	@ Tag_CPU_unaligned_access
  12              		.eabi_attribute 18, 4	@ Tag_ABI_PCS_wchar_t
  13              		.file	"mbfuncother.c"
  14              	@ GNU C (GNU Tools for ARM Embedded Processors) version 4.9.3 20141119 (release) [ARM/embedded-4_9-
  15              	@	compiled by GNU C version 4.7.4, GMP version 4.3.2, MPFR version 2.4.2, MPC version 0.8.1
  16              	@ GGC heuristics: --param ggc-min-expand=100 --param ggc-min-heapsize=131072
  17              	@ options passed:  -I . -I Inc -I gui -I emWin -I emWin/config
  18              	@ -I freemodbus-v1.5.0/port -I freemodbus-v1.5.0/modbus/include
  19              	@ -I freemodbus-v1.5.0/modbus/ascii -I freemodbus-v1.5.0/modbus/rtu
  20              	@ -I ../STM32Cube_FW_F4_V1.4.0/Drivers/CMSIS/Include
  21              	@ -I ../STM32Cube_FW_F4_V1.4.0/Drivers/CMSIS/Device/ST/STM32F4xx/Include
  22              	@ -I ../STM32Cube_FW_F4_V1.4.0/Drivers/STM32F4xx_HAL_Driver/Inc
  23              	@ -I ../STM32Cube_FW_F4_V1.4.0/Drivers/CMSIS/Include
  24              	@ -I ../STM32Cube_FW_F4_V1.4.0/Middlewares/ST/STemWin/inc
  25              	@ -I ../STM32Cube_FW_F4_V1.4.0/Middlewares/Third_Party/FatFs/src
  26              	@ -I ../STM32Cube_FW_F4_V1.4.0/Middlewares/Third_Party/FatFs/src/drivers/sd
  27              	@ -I ./drivers/display -imultilib armv7e-m
  28              	@ -iprefix c:\program files\gcc-arm-none-eabi-4_9-2014\bin\../lib/gcc/arm-none-eabi/4.9.3/
  29              	@ -isysroot c:\program files\gcc-arm-none-eabi-4_9-2014\bin\../arm-none-eabi
  30              	@ -MD out/mbfuncother.d -MF out/mbfuncother.d -MP -MQ out/mbfuncother.o
  31              	@ -D__USES_INITFINI__ -D USE_HAL_DRIVER -D STM32F4XX -D HSE_VALUE=25000000
  32              	@ -D STM32F437xx -D USE_FULL_ASSERT -D __GNUC__ -D __VFP_FP__
  33              	@ -D ARM_MATH_CM4 -D LOG_INFO
  34              	@ freemodbus-v1.5.0/modbus/functions/mbfuncother.c -mcpu=cortex-m4 -mthumb
  35              	@ -auxbase-strip out/mbfuncother.o -g -ggdb3 -Os -Os -Wall
  36              	@ -Wstrict-prototypes -Wextra -std=gnu90 -ffunction-sections
  37              	@ -fdata-sections -fverbose-asm
  38              	@ options enabled:  -faggressive-loop-optimizations -fauto-inc-dec
  39              	@ -fbranch-count-reg -fcaller-saves -fcombine-stack-adjustments -fcommon
  40              	@ -fcompare-elim -fcprop-registers -fcrossjumping -fcse-follow-jumps
  41              	@ -fdata-sections -fdefer-pop -fdelete-null-pointer-checks -fdevirtualize
  42              	@ -fdevirtualize-speculatively -fdwarf2-cfi-asm -fearly-inlining
  43              	@ -feliminate-unused-debug-types -fexpensive-optimizations
  44              	@ -fforward-propagate -ffunction-cse -ffunction-sections -fgcse -fgcse-lm
  45              	@ -fgnu-runtime -fgnu-unique -fguess-branch-probability
  46              	@ -fhoist-adjacent-loads -fident -fif-conversion -fif-conversion2
  47              	@ -findirect-inlining -finline -finline-atomics -finline-functions
  48              	@ -finline-functions-called-once -finline-small-functions -fipa-cp
  49              	@ -fipa-profile -fipa-pure-const -fipa-reference -fipa-sra
  50              	@ -fira-hoist-pressure -fira-share-save-slots -fira-share-spill-slots
  51              	@ -fisolate-erroneous-paths-dereference -fivopts -fkeep-static-consts
  52              	@ -fleading-underscore -fmath-errno -fmerge-constants -fmerge-debug-strings
  53              	@ -fomit-frame-pointer -foptimize-sibling-calls -fpartial-inlining
  54              	@ -fpeephole -fpeephole2 -fprefetch-loop-arrays -freg-struct-return
  55              	@ -freorder-blocks -freorder-functions -frerun-cse-after-loop
  56              	@ -fsched-critical-path-heuristic -fsched-dep-count-heuristic
  57              	@ -fsched-group-heuristic -fsched-interblock -fsched-last-insn-heuristic
ARM GAS  C:\cygwin\tmp\ccllvGde.s 			page 2


  58              	@ -fsched-pressure -fsched-rank-heuristic -fsched-spec
  59              	@ -fsched-spec-insn-heuristic -fsched-stalled-insns-dep -fschedule-insns2
  60              	@ -fsection-anchors -fshow-column -fsigned-zeros -fsplit-ivs-in-unroller
  61              	@ -fsplit-wide-types -fstrict-aliasing -fstrict-overflow
  62              	@ -fstrict-volatile-bitfields -fsync-libcalls -fthread-jumps
  63              	@ -ftoplevel-reorder -ftrapping-math -ftree-bit-ccp -ftree-builtin-call-dce
  64              	@ -ftree-ccp -ftree-ch -ftree-coalesce-vars -ftree-copy-prop
  65              	@ -ftree-copyrename -ftree-cselim -ftree-dce -ftree-dominator-opts
  66              	@ -ftree-dse -ftree-forwprop -ftree-fre -ftree-loop-if-convert
  67              	@ -ftree-loop-im -ftree-loop-ivcanon -ftree-loop-optimize
  68              	@ -ftree-parallelize-loops= -ftree-phiprop -ftree-pre -ftree-pta
  69              	@ -ftree-reassoc -ftree-scev-cprop -ftree-sink -ftree-slsr -ftree-sra
  70              	@ -ftree-switch-conversion -ftree-tail-merge -ftree-ter -ftree-vrp
  71              	@ -funit-at-a-time -fvar-tracking -fvar-tracking-assignments -fverbose-asm
  72              	@ -fzero-initialized-in-bss -mlittle-endian -mlra
  73              	@ -mpic-data-is-text-relative -msched-prolog -mthumb -munaligned-access
  74              	@ -mvectorize-with-neon-quad
  75              	
  76              		.text
  77              	.Ltext0:
  78              		.cfi_sections	.debug_frame
  79              		.section	.text.eMBSetSlaveID,"ax",%progbits
  80              		.align	1
  81              		.global	eMBSetSlaveID
  82              		.thumb
  83              		.thumb_func
  84              		.type	eMBSetSlaveID, %function
  85              	eMBSetSlaveID:
  86              	.LFB0:
  87              		.file 1 "freemodbus-v1.5.0/modbus/functions/mbfuncother.c"
   1:freemodbus-v1.5.0/modbus/functions/mbfuncother.c **** /* 
   2:freemodbus-v1.5.0/modbus/functions/mbfuncother.c ****  * FreeModbus Libary: A portable Modbus implementation for Modbus ASCII/RTU.
   3:freemodbus-v1.5.0/modbus/functions/mbfuncother.c ****  * Copyright (c) 2006 Christian Walter <wolti@sil.at>
   4:freemodbus-v1.5.0/modbus/functions/mbfuncother.c ****  * All rights reserved.
   5:freemodbus-v1.5.0/modbus/functions/mbfuncother.c ****  *
   6:freemodbus-v1.5.0/modbus/functions/mbfuncother.c ****  * Redistribution and use in source and binary forms, with or without
   7:freemodbus-v1.5.0/modbus/functions/mbfuncother.c ****  * modification, are permitted provided that the following conditions
   8:freemodbus-v1.5.0/modbus/functions/mbfuncother.c ****  * are met:
   9:freemodbus-v1.5.0/modbus/functions/mbfuncother.c ****  * 1. Redistributions of source code must retain the above copyright
  10:freemodbus-v1.5.0/modbus/functions/mbfuncother.c ****  *    notice, this list of conditions and the following disclaimer.
  11:freemodbus-v1.5.0/modbus/functions/mbfuncother.c ****  * 2. Redistributions in binary form must reproduce the above copyright
  12:freemodbus-v1.5.0/modbus/functions/mbfuncother.c ****  *    notice, this list of conditions and the following disclaimer in the
  13:freemodbus-v1.5.0/modbus/functions/mbfuncother.c ****  *    documentation and/or other materials provided with the distribution.
  14:freemodbus-v1.5.0/modbus/functions/mbfuncother.c ****  * 3. The name of the author may not be used to endorse or promote products
  15:freemodbus-v1.5.0/modbus/functions/mbfuncother.c ****  *    derived from this software without specific prior written permission.
  16:freemodbus-v1.5.0/modbus/functions/mbfuncother.c ****  *
  17:freemodbus-v1.5.0/modbus/functions/mbfuncother.c ****  * THIS SOFTWARE IS PROVIDED BY THE AUTHOR ``AS IS'' AND ANY EXPRESS OR
  18:freemodbus-v1.5.0/modbus/functions/mbfuncother.c ****  * IMPLIED WARRANTIES, INCLUDING, BUT NOT LIMITED TO, THE IMPLIED WARRANTIES
  19:freemodbus-v1.5.0/modbus/functions/mbfuncother.c ****  * OF MERCHANTABILITY AND FITNESS FOR A PARTICULAR PURPOSE ARE DISCLAIMED.
  20:freemodbus-v1.5.0/modbus/functions/mbfuncother.c ****  * IN NO EVENT SHALL THE AUTHOR BE LIABLE FOR ANY DIRECT, INDIRECT,
  21:freemodbus-v1.5.0/modbus/functions/mbfuncother.c ****  * INCIDENTAL, SPECIAL, EXEMPLARY, OR CONSEQUENTIAL DAMAGES (INCLUDING, BUT
  22:freemodbus-v1.5.0/modbus/functions/mbfuncother.c ****  * NOT LIMITED TO, PROCUREMENT OF SUBSTITUTE GOODS OR SERVICES; LOSS OF USE,
  23:freemodbus-v1.5.0/modbus/functions/mbfuncother.c ****  * DATA, OR PROFITS; OR BUSINESS INTERRUPTION) HOWEVER CAUSED AND ON ANY
  24:freemodbus-v1.5.0/modbus/functions/mbfuncother.c ****  * THEORY OF LIABILITY, WHETHER IN CONTRACT, STRICT LIABILITY, OR TORT
  25:freemodbus-v1.5.0/modbus/functions/mbfuncother.c ****  * (INCLUDING NEGLIGENCE OR OTHERWISE) ARISING IN ANY WAY OUT OF THE USE OF
  26:freemodbus-v1.5.0/modbus/functions/mbfuncother.c ****  * THIS SOFTWARE, EVEN IF ADVISED OF THE POSSIBILITY OF SUCH DAMAGE.
  27:freemodbus-v1.5.0/modbus/functions/mbfuncother.c ****  *
ARM GAS  C:\cygwin\tmp\ccllvGde.s 			page 3


  28:freemodbus-v1.5.0/modbus/functions/mbfuncother.c ****  * File: $Id: mbfuncother.c,v 1.8 2006/12/07 22:10:34 wolti Exp $
  29:freemodbus-v1.5.0/modbus/functions/mbfuncother.c ****  */
  30:freemodbus-v1.5.0/modbus/functions/mbfuncother.c **** 
  31:freemodbus-v1.5.0/modbus/functions/mbfuncother.c **** /* ----------------------- System includes ----------------------------------*/
  32:freemodbus-v1.5.0/modbus/functions/mbfuncother.c **** #include "stdlib.h"
  33:freemodbus-v1.5.0/modbus/functions/mbfuncother.c **** #include "string.h"
  34:freemodbus-v1.5.0/modbus/functions/mbfuncother.c **** 
  35:freemodbus-v1.5.0/modbus/functions/mbfuncother.c **** /* ----------------------- Platform includes --------------------------------*/
  36:freemodbus-v1.5.0/modbus/functions/mbfuncother.c **** #include "port.h"
  37:freemodbus-v1.5.0/modbus/functions/mbfuncother.c **** 
  38:freemodbus-v1.5.0/modbus/functions/mbfuncother.c **** /* ----------------------- Modbus includes ----------------------------------*/
  39:freemodbus-v1.5.0/modbus/functions/mbfuncother.c **** #include "mb.h"
  40:freemodbus-v1.5.0/modbus/functions/mbfuncother.c **** #include "mbframe.h"
  41:freemodbus-v1.5.0/modbus/functions/mbfuncother.c **** #include "mbproto.h"
  42:freemodbus-v1.5.0/modbus/functions/mbfuncother.c **** #include "mbconfig.h"
  43:freemodbus-v1.5.0/modbus/functions/mbfuncother.c **** 
  44:freemodbus-v1.5.0/modbus/functions/mbfuncother.c **** #if MB_FUNC_OTHER_REP_SLAVEID_ENABLED > 0
  45:freemodbus-v1.5.0/modbus/functions/mbfuncother.c **** 
  46:freemodbus-v1.5.0/modbus/functions/mbfuncother.c **** /* ----------------------- Static variables ---------------------------------*/
  47:freemodbus-v1.5.0/modbus/functions/mbfuncother.c **** static UCHAR    ucMBSlaveID[MB_FUNC_OTHER_REP_SLAVEID_BUF];
  48:freemodbus-v1.5.0/modbus/functions/mbfuncother.c **** static USHORT   usMBSlaveIDLen;
  49:freemodbus-v1.5.0/modbus/functions/mbfuncother.c **** 
  50:freemodbus-v1.5.0/modbus/functions/mbfuncother.c **** /* ----------------------- Start implementation -----------------------------*/
  51:freemodbus-v1.5.0/modbus/functions/mbfuncother.c **** 
  52:freemodbus-v1.5.0/modbus/functions/mbfuncother.c **** eMBErrorCode
  53:freemodbus-v1.5.0/modbus/functions/mbfuncother.c **** eMBSetSlaveID( UCHAR ucSlaveID, BOOL xIsRunning,
  54:freemodbus-v1.5.0/modbus/functions/mbfuncother.c ****                UCHAR const *pucAdditional, USHORT usAdditionalLen )
  55:freemodbus-v1.5.0/modbus/functions/mbfuncother.c **** {
  88              		.loc 1 55 0
  89              		.cfi_startproc
  90              		@ args = 0, pretend = 0, frame = 0
  91              		@ frame_needed = 0, uses_anonymous_args = 0
  92              	.LVL0:
  56:freemodbus-v1.5.0/modbus/functions/mbfuncother.c ****     eMBErrorCode    eStatus = MB_ENOERR;
  57:freemodbus-v1.5.0/modbus/functions/mbfuncother.c **** 
  58:freemodbus-v1.5.0/modbus/functions/mbfuncother.c ****     /* the first byte and second byte in the buffer is reserved for
  59:freemodbus-v1.5.0/modbus/functions/mbfuncother.c ****      * the parameter ucSlaveID and the running flag. The rest of
  60:freemodbus-v1.5.0/modbus/functions/mbfuncother.c ****      * the buffer is available for additional data. */
  61:freemodbus-v1.5.0/modbus/functions/mbfuncother.c ****     if( usAdditionalLen + 2 < MB_FUNC_OTHER_REP_SLAVEID_BUF )
  93              		.loc 1 61 0
  94 0000 1D2B     		cmp	r3, #29	@ usAdditionalLen,
  55:freemodbus-v1.5.0/modbus/functions/mbfuncother.c ****     eMBErrorCode    eStatus = MB_ENOERR;
  95              		.loc 1 55 0
  96 0002 70B5     		push	{r4, r5, r6, lr}	@
  97              		.cfi_def_cfa_offset 16
  98              		.cfi_offset 4, -16
  99              		.cfi_offset 5, -12
 100              		.cfi_offset 6, -8
 101              		.cfi_offset 14, -4
  55:freemodbus-v1.5.0/modbus/functions/mbfuncother.c ****     eMBErrorCode    eStatus = MB_ENOERR;
 102              		.loc 1 55 0
 103 0004 1C46     		mov	r4, r3	@ usAdditionalLen, usAdditionalLen
 104              		.loc 1 61 0
 105 0006 13DC     		bgt	.L3	@,
  62:freemodbus-v1.5.0/modbus/functions/mbfuncother.c ****     {
  63:freemodbus-v1.5.0/modbus/functions/mbfuncother.c ****         usMBSlaveIDLen = 0;
  64:freemodbus-v1.5.0/modbus/functions/mbfuncother.c ****         ucMBSlaveID[usMBSlaveIDLen++] = ucSlaveID;
ARM GAS  C:\cygwin\tmp\ccllvGde.s 			page 4


  65:freemodbus-v1.5.0/modbus/functions/mbfuncother.c ****         ucMBSlaveID[usMBSlaveIDLen++] = ( UCHAR )( xIsRunning ? 0xFF : 0x00 );
 106              		.loc 1 65 0
 107 0008 0A4E     		ldr	r6, .L7	@ tmp124,
  64:freemodbus-v1.5.0/modbus/functions/mbfuncother.c ****         ucMBSlaveID[usMBSlaveIDLen++] = ( UCHAR )( xIsRunning ? 0xFF : 0x00 );
 108              		.loc 1 64 0
 109 000a 0B4D     		ldr	r5, .L7+4	@ tmp122,
 110              		.loc 1 65 0
 111 000c 0223     		movs	r3, #2	@ tmp126,
 112              	.LVL1:
 113 000e 3380     		strh	r3, [r6]	@ movhi	@ tmp126, usMBSlaveIDLen
 114 0010 0B1C     		adds	r3, r1, #0	@ tmp129, xIsRunning,
 115 0012 18BF     		it	ne
 116 0014 0123     		movne	r3, #1	@ tmp129,
 117 0016 5B42     		negs	r3, r3	@ tmp130, tmp129
  64:freemodbus-v1.5.0/modbus/functions/mbfuncother.c ****         ucMBSlaveID[usMBSlaveIDLen++] = ( UCHAR )( xIsRunning ? 0xFF : 0x00 );
 118              		.loc 1 64 0
 119 0018 2870     		strb	r0, [r5]	@ ucSlaveID, ucMBSlaveID
 120              		.loc 1 65 0
 121 001a 6B70     		strb	r3, [r5, #1]	@ tmp130, ucMBSlaveID
  66:freemodbus-v1.5.0/modbus/functions/mbfuncother.c ****         if( usAdditionalLen > 0 )
 122              		.loc 1 66 0
 123 001c 34B1     		cbz	r4, .L5	@ usAdditionalLen,
  67:freemodbus-v1.5.0/modbus/functions/mbfuncother.c ****         {
  68:freemodbus-v1.5.0/modbus/functions/mbfuncother.c ****             memcpy( &ucMBSlaveID[usMBSlaveIDLen], pucAdditional,
 124              		.loc 1 68 0
 125 001e 1146     		mov	r1, r2	@, pucAdditional
 126              	.LVL2:
 127 0020 A81C     		adds	r0, r5, #2	@, tmp122,
 128              	.LVL3:
 129 0022 2246     		mov	r2, r4	@, usAdditionalLen
 130              	.LVL4:
  69:freemodbus-v1.5.0/modbus/functions/mbfuncother.c ****                     ( size_t )usAdditionalLen );
  70:freemodbus-v1.5.0/modbus/functions/mbfuncother.c ****             usMBSlaveIDLen += usAdditionalLen;
 131              		.loc 1 70 0
 132 0024 0234     		adds	r4, r4, #2	@ tmp139, usAdditionalLen,
  68:freemodbus-v1.5.0/modbus/functions/mbfuncother.c ****                     ( size_t )usAdditionalLen );
 133              		.loc 1 68 0
 134 0026 FFF7FEFF 		bl	memcpy	@
 135              	.LVL5:
 136              		.loc 1 70 0
 137 002a 3480     		strh	r4, [r6]	@ movhi	@ tmp139, usMBSlaveIDLen
 138              	.L5:
  56:freemodbus-v1.5.0/modbus/functions/mbfuncother.c **** 
 139              		.loc 1 56 0
 140 002c 0020     		movs	r0, #0	@ eStatus,
 141 002e 70BD     		pop	{r4, r5, r6, pc}	@
 142              	.LVL6:
 143              	.L3:
  71:freemodbus-v1.5.0/modbus/functions/mbfuncother.c ****         }
  72:freemodbus-v1.5.0/modbus/functions/mbfuncother.c ****     }
  73:freemodbus-v1.5.0/modbus/functions/mbfuncother.c ****     else
  74:freemodbus-v1.5.0/modbus/functions/mbfuncother.c ****     {
  75:freemodbus-v1.5.0/modbus/functions/mbfuncother.c ****         eStatus = MB_ENORES;
 144              		.loc 1 75 0
 145 0030 0420     		movs	r0, #4	@ eStatus,
 146              	.LVL7:
 147 0032 70BD     		pop	{r4, r5, r6, pc}	@
ARM GAS  C:\cygwin\tmp\ccllvGde.s 			page 5


 148              	.L8:
 149              		.align	2
 150              	.L7:
 151 0034 00000000 		.word	.LANCHOR1
 152 0038 00000000 		.word	.LANCHOR0
 153              		.cfi_endproc
 154              	.LFE0:
 155              		.size	eMBSetSlaveID, .-eMBSetSlaveID
 156              		.section	.text.eMBFuncReportSlaveID,"ax",%progbits
 157              		.align	1
 158              		.global	eMBFuncReportSlaveID
 159              		.thumb
 160              		.thumb_func
 161              		.type	eMBFuncReportSlaveID, %function
 162              	eMBFuncReportSlaveID:
 163              	.LFB1:
  76:freemodbus-v1.5.0/modbus/functions/mbfuncother.c ****     }
  77:freemodbus-v1.5.0/modbus/functions/mbfuncother.c ****     return eStatus;
  78:freemodbus-v1.5.0/modbus/functions/mbfuncother.c **** }
  79:freemodbus-v1.5.0/modbus/functions/mbfuncother.c **** 
  80:freemodbus-v1.5.0/modbus/functions/mbfuncother.c **** eMBException
  81:freemodbus-v1.5.0/modbus/functions/mbfuncother.c **** eMBFuncReportSlaveID( UCHAR * pucFrame, USHORT * usLen )
  82:freemodbus-v1.5.0/modbus/functions/mbfuncother.c **** {
 164              		.loc 1 82 0
 165              		.cfi_startproc
 166              		@ args = 0, pretend = 0, frame = 0
 167              		@ frame_needed = 0, uses_anonymous_args = 0
 168              	.LVL8:
 169 0000 38B5     		push	{r3, r4, r5, lr}	@
 170              		.cfi_def_cfa_offset 16
 171              		.cfi_offset 3, -16
 172              		.cfi_offset 4, -12
 173              		.cfi_offset 5, -8
 174              		.cfi_offset 14, -4
  83:freemodbus-v1.5.0/modbus/functions/mbfuncother.c ****     memcpy( &pucFrame[MB_PDU_DATA_OFF], &ucMBSlaveID[0], ( size_t )usMBSlaveIDLen );
 175              		.loc 1 83 0
 176 0002 064B     		ldr	r3, .L10	@ tmp117,
 177 0004 1C88     		ldrh	r4, [r3]	@ D.5105, usMBSlaveIDLen
  82:freemodbus-v1.5.0/modbus/functions/mbfuncother.c ****     memcpy( &pucFrame[MB_PDU_DATA_OFF], &ucMBSlaveID[0], ( size_t )usMBSlaveIDLen );
 178              		.loc 1 82 0
 179 0006 0D46     		mov	r5, r1	@ usLen, usLen
 180              		.loc 1 83 0
 181 0008 2246     		mov	r2, r4	@, D.5105
 182 000a 0549     		ldr	r1, .L10+4	@,
 183              	.LVL9:
  84:freemodbus-v1.5.0/modbus/functions/mbfuncother.c ****     *usLen = ( USHORT )( MB_PDU_DATA_OFF + usMBSlaveIDLen );
 184              		.loc 1 84 0
 185 000c 0134     		adds	r4, r4, #1	@ tmp124, D.5105,
  83:freemodbus-v1.5.0/modbus/functions/mbfuncother.c ****     memcpy( &pucFrame[MB_PDU_DATA_OFF], &ucMBSlaveID[0], ( size_t )usMBSlaveIDLen );
 186              		.loc 1 83 0
 187 000e 0130     		adds	r0, r0, #1	@, pucFrame,
 188              	.LVL10:
 189 0010 FFF7FEFF 		bl	memcpy	@
 190              	.LVL11:
 191              		.loc 1 84 0
 192 0014 2C80     		strh	r4, [r5]	@ movhi	@ tmp124, *usLen_8(D)
  85:freemodbus-v1.5.0/modbus/functions/mbfuncother.c ****     return MB_EX_NONE;
ARM GAS  C:\cygwin\tmp\ccllvGde.s 			page 6


  86:freemodbus-v1.5.0/modbus/functions/mbfuncother.c **** }
 193              		.loc 1 86 0
 194 0016 0020     		movs	r0, #0	@,
 195 0018 38BD     		pop	{r3, r4, r5, pc}	@
 196              	.LVL12:
 197              	.L11:
 198 001a 00BF     		.align	2
 199              	.L10:
 200 001c 00000000 		.word	.LANCHOR1
 201 0020 00000000 		.word	.LANCHOR0
 202              		.cfi_endproc
 203              	.LFE1:
 204              		.size	eMBFuncReportSlaveID, .-eMBFuncReportSlaveID
 205              		.section	.bss.usMBSlaveIDLen,"aw",%nobits
 206              		.align	1
 207              		.set	.LANCHOR1,. + 0
 208              		.type	usMBSlaveIDLen, %object
 209              		.size	usMBSlaveIDLen, 2
 210              	usMBSlaveIDLen:
 211 0000 0000     		.space	2
 212              		.section	.bss.ucMBSlaveID,"aw",%nobits
 213              		.set	.LANCHOR0,. + 0
 214              		.type	ucMBSlaveID, %object
 215              		.size	ucMBSlaveID, 32
 216              	ucMBSlaveID:
 217 0000 00000000 		.space	32
 217      00000000 
 217      00000000 
 217      00000000 
 217      00000000 
 218              		.text
 219              	.Letext0:
 220              		.file 2 "c:\\program files\\gcc-arm-none-eabi-4_9-2014\\lib\\gcc\\arm-none-eabi\\4.9.3\\include\\s
 221              		.file 3 "c:\\program files\\gcc-arm-none-eabi-4_9-2014\\arm-none-eabi\\include\\machine\\_default_
 222              		.file 4 "c:\\program files\\gcc-arm-none-eabi-4_9-2014\\arm-none-eabi\\include\\stdint.h"
 223              		.file 5 "freemodbus-v1.5.0/port/port.h"
 224              		.file 6 "freemodbus-v1.5.0/modbus/include/mbproto.h"
 225              		.file 7 "freemodbus-v1.5.0/modbus/include/mb.h"