ARM GAS  C:\cygwin\tmp\ccYiVZGM.s 			page 1


   1              		.syntax unified
   2              		.cpu cortex-m4
   3              		.fpu softvfp
   4              		.eabi_attribute 20, 1	@ Tag_ABI_FP_denormal
   5              		.eabi_attribute 21, 1	@ Tag_ABI_FP_exceptions
   6              		.eabi_attribute 23, 3	@ Tag_ABI_FP_number_model
   7              		.eabi_attribute 24, 1	@ Tag_ABI_align8_needed
   8              		.eabi_attribute 25, 1	@ Tag_ABI_align8_preserved
   9              		.eabi_attribute 26, 1	@ Tag_ABI_enum_size
  10              		.eabi_attribute 30, 4	@ Tag_ABI_optimization_goals
  11              		.eabi_attribute 34, 1	@ Tag_CPU_unaligned_access
  12              		.eabi_attribute 18, 4	@ Tag_ABI_PCS_wchar_t
  13              		.file	"mbfuncholding.c"
  14              	@ GNU C (GNU Tools for ARM Embedded Processors) version 4.9.3 20141119 (release) [ARM/embedded-4_9-
  15              	@	compiled by GNU C version 4.7.4, GMP version 4.3.2, MPFR version 2.4.2, MPC version 0.8.1
  16              	@ GGC heuristics: --param ggc-min-expand=100 --param ggc-min-heapsize=131072
  17              	@ options passed:  -I . -I Inc -I gui -I emWin -I emWin/config
  18              	@ -I freemodbus-v1.5.0/port -I freemodbus-v1.5.0/modbus/include
  19              	@ -I freemodbus-v1.5.0/modbus/ascii -I freemodbus-v1.5.0/modbus/rtu
  20              	@ -I ../STM32Cube_FW_F4_V1.4.0/Drivers/CMSIS/Include
  21              	@ -I ../STM32Cube_FW_F4_V1.4.0/Drivers/CMSIS/Device/ST/STM32F4xx/Include
  22              	@ -I ../STM32Cube_FW_F4_V1.4.0/Drivers/STM32F4xx_HAL_Driver/Inc
  23              	@ -I ../STM32Cube_FW_F4_V1.4.0/Drivers/CMSIS/Include
  24              	@ -I ../STM32Cube_FW_F4_V1.4.0/Middlewares/ST/STemWin/inc
  25              	@ -I ../STM32Cube_FW_F4_V1.4.0/Middlewares/Third_Party/FatFs/src
  26              	@ -I ../STM32Cube_FW_F4_V1.4.0/Middlewares/Third_Party/FatFs/src/drivers/sd
  27              	@ -I ./drivers/display -imultilib armv7e-m
  28              	@ -iprefix c:\program files\gcc-arm-none-eabi-4_9-2014\bin\../lib/gcc/arm-none-eabi/4.9.3/
  29              	@ -isysroot c:\program files\gcc-arm-none-eabi-4_9-2014\bin\../arm-none-eabi
  30              	@ -MD out/mbfuncholding.d -MF out/mbfuncholding.d -MP
  31              	@ -MQ out/mbfuncholding.o -D__USES_INITFINI__ -D USE_HAL_DRIVER
  32              	@ -D STM32F4XX -D HSE_VALUE=25000000 -D STM32F437xx -D USE_FULL_ASSERT
  33              	@ -D __GNUC__ -D __VFP_FP__ -D ARM_MATH_CM4 -D LOG_INFO
  34              	@ freemodbus-v1.5.0/modbus/functions/mbfuncholding.c -mcpu=cortex-m4
  35              	@ -mthumb -auxbase-strip out/mbfuncholding.o -g -ggdb3 -Os -Os -Wall
  36              	@ -Wstrict-prototypes -Wextra -std=gnu90 -ffunction-sections
  37              	@ -fdata-sections -fverbose-asm
  38              	@ options enabled:  -faggressive-loop-optimizations -fauto-inc-dec
  39              	@ -fbranch-count-reg -fcaller-saves -fcombine-stack-adjustments -fcommon
  40              	@ -fcompare-elim -fcprop-registers -fcrossjumping -fcse-follow-jumps
  41              	@ -fdata-sections -fdefer-pop -fdelete-null-pointer-checks -fdevirtualize
  42              	@ -fdevirtualize-speculatively -fdwarf2-cfi-asm -fearly-inlining
  43              	@ -feliminate-unused-debug-types -fexpensive-optimizations
  44              	@ -fforward-propagate -ffunction-cse -ffunction-sections -fgcse -fgcse-lm
  45              	@ -fgnu-runtime -fgnu-unique -fguess-branch-probability
  46              	@ -fhoist-adjacent-loads -fident -fif-conversion -fif-conversion2
  47              	@ -findirect-inlining -finline -finline-atomics -finline-functions
  48              	@ -finline-functions-called-once -finline-small-functions -fipa-cp
  49              	@ -fipa-profile -fipa-pure-const -fipa-reference -fipa-sra
  50              	@ -fira-hoist-pressure -fira-share-save-slots -fira-share-spill-slots
  51              	@ -fisolate-erroneous-paths-dereference -fivopts -fkeep-static-consts
  52              	@ -fleading-underscore -fmath-errno -fmerge-constants -fmerge-debug-strings
  53              	@ -fomit-frame-pointer -foptimize-sibling-calls -fpartial-inlining
  54              	@ -fpeephole -fpeephole2 -fprefetch-loop-arrays -freg-struct-return
  55              	@ -freorder-blocks -freorder-functions -frerun-cse-after-loop
  56              	@ -fsched-critical-path-heuristic -fsched-dep-count-heuristic
  57              	@ -fsched-group-heuristic -fsched-interblock -fsched-last-insn-heuristic
ARM GAS  C:\cygwin\tmp\ccYiVZGM.s 			page 2


  58              	@ -fsched-pressure -fsched-rank-heuristic -fsched-spec
  59              	@ -fsched-spec-insn-heuristic -fsched-stalled-insns-dep -fschedule-insns2
  60              	@ -fsection-anchors -fshow-column -fsigned-zeros -fsplit-ivs-in-unroller
  61              	@ -fsplit-wide-types -fstrict-aliasing -fstrict-overflow
  62              	@ -fstrict-volatile-bitfields -fsync-libcalls -fthread-jumps
  63              	@ -ftoplevel-reorder -ftrapping-math -ftree-bit-ccp -ftree-builtin-call-dce
  64              	@ -ftree-ccp -ftree-ch -ftree-coalesce-vars -ftree-copy-prop
  65              	@ -ftree-copyrename -ftree-cselim -ftree-dce -ftree-dominator-opts
  66              	@ -ftree-dse -ftree-forwprop -ftree-fre -ftree-loop-if-convert
  67              	@ -ftree-loop-im -ftree-loop-ivcanon -ftree-loop-optimize
  68              	@ -ftree-parallelize-loops= -ftree-phiprop -ftree-pre -ftree-pta
  69              	@ -ftree-reassoc -ftree-scev-cprop -ftree-sink -ftree-slsr -ftree-sra
  70              	@ -ftree-switch-conversion -ftree-tail-merge -ftree-ter -ftree-vrp
  71              	@ -funit-at-a-time -fvar-tracking -fvar-tracking-assignments -fverbose-asm
  72              	@ -fzero-initialized-in-bss -mlittle-endian -mlra
  73              	@ -mpic-data-is-text-relative -msched-prolog -mthumb -munaligned-access
  74              	@ -mvectorize-with-neon-quad
  75              	
  76              		.text
  77              	.Ltext0:
  78              		.cfi_sections	.debug_frame
  79              		.section	.text.eMBFuncWriteHoldingRegister,"ax",%progbits
  80              		.align	1
  81              		.global	eMBFuncWriteHoldingRegister
  82              		.thumb
  83              		.thumb_func
  84              		.type	eMBFuncWriteHoldingRegister, %function
  85              	eMBFuncWriteHoldingRegister:
  86              	.LFB0:
  87              		.file 1 "freemodbus-v1.5.0/modbus/functions/mbfuncholding.c"
   1:freemodbus-v1.5.0/modbus/functions/mbfuncholding.c **** /* 
   2:freemodbus-v1.5.0/modbus/functions/mbfuncholding.c ****  * FreeModbus Libary: A portable Modbus implementation for Modbus ASCII/RTU.
   3:freemodbus-v1.5.0/modbus/functions/mbfuncholding.c ****  * Copyright (c) 2006 Christian Walter <wolti@sil.at>
   4:freemodbus-v1.5.0/modbus/functions/mbfuncholding.c ****  * All rights reserved.
   5:freemodbus-v1.5.0/modbus/functions/mbfuncholding.c ****  *
   6:freemodbus-v1.5.0/modbus/functions/mbfuncholding.c ****  * Redistribution and use in source and binary forms, with or without
   7:freemodbus-v1.5.0/modbus/functions/mbfuncholding.c ****  * modification, are permitted provided that the following conditions
   8:freemodbus-v1.5.0/modbus/functions/mbfuncholding.c ****  * are met:
   9:freemodbus-v1.5.0/modbus/functions/mbfuncholding.c ****  * 1. Redistributions of source code must retain the above copyright
  10:freemodbus-v1.5.0/modbus/functions/mbfuncholding.c ****  *    notice, this list of conditions and the following disclaimer.
  11:freemodbus-v1.5.0/modbus/functions/mbfuncholding.c ****  * 2. Redistributions in binary form must reproduce the above copyright
  12:freemodbus-v1.5.0/modbus/functions/mbfuncholding.c ****  *    notice, this list of conditions and the following disclaimer in the
  13:freemodbus-v1.5.0/modbus/functions/mbfuncholding.c ****  *    documentation and/or other materials provided with the distribution.
  14:freemodbus-v1.5.0/modbus/functions/mbfuncholding.c ****  * 3. The name of the author may not be used to endorse or promote products
  15:freemodbus-v1.5.0/modbus/functions/mbfuncholding.c ****  *    derived from this software without specific prior written permission.
  16:freemodbus-v1.5.0/modbus/functions/mbfuncholding.c ****  *
  17:freemodbus-v1.5.0/modbus/functions/mbfuncholding.c ****  * THIS SOFTWARE IS PROVIDED BY THE AUTHOR ``AS IS'' AND ANY EXPRESS OR
  18:freemodbus-v1.5.0/modbus/functions/mbfuncholding.c ****  * IMPLIED WARRANTIES, INCLUDING, BUT NOT LIMITED TO, THE IMPLIED WARRANTIES
  19:freemodbus-v1.5.0/modbus/functions/mbfuncholding.c ****  * OF MERCHANTABILITY AND FITNESS FOR A PARTICULAR PURPOSE ARE DISCLAIMED.
  20:freemodbus-v1.5.0/modbus/functions/mbfuncholding.c ****  * IN NO EVENT SHALL THE AUTHOR BE LIABLE FOR ANY DIRECT, INDIRECT,
  21:freemodbus-v1.5.0/modbus/functions/mbfuncholding.c ****  * INCIDENTAL, SPECIAL, EXEMPLARY, OR CONSEQUENTIAL DAMAGES (INCLUDING, BUT
  22:freemodbus-v1.5.0/modbus/functions/mbfuncholding.c ****  * NOT LIMITED TO, PROCUREMENT OF SUBSTITUTE GOODS OR SERVICES; LOSS OF USE,
  23:freemodbus-v1.5.0/modbus/functions/mbfuncholding.c ****  * DATA, OR PROFITS; OR BUSINESS INTERRUPTION) HOWEVER CAUSED AND ON ANY
  24:freemodbus-v1.5.0/modbus/functions/mbfuncholding.c ****  * THEORY OF LIABILITY, WHETHER IN CONTRACT, STRICT LIABILITY, OR TORT
  25:freemodbus-v1.5.0/modbus/functions/mbfuncholding.c ****  * (INCLUDING NEGLIGENCE OR OTHERWISE) ARISING IN ANY WAY OUT OF THE USE OF
  26:freemodbus-v1.5.0/modbus/functions/mbfuncholding.c ****  * THIS SOFTWARE, EVEN IF ADVISED OF THE POSSIBILITY OF SUCH DAMAGE.
  27:freemodbus-v1.5.0/modbus/functions/mbfuncholding.c ****  *
ARM GAS  C:\cygwin\tmp\ccYiVZGM.s 			page 3


  28:freemodbus-v1.5.0/modbus/functions/mbfuncholding.c ****  * File: $Id: mbfuncholding.c,v 1.12 2007/02/18 23:48:22 wolti Exp $
  29:freemodbus-v1.5.0/modbus/functions/mbfuncholding.c ****  */
  30:freemodbus-v1.5.0/modbus/functions/mbfuncholding.c **** 
  31:freemodbus-v1.5.0/modbus/functions/mbfuncholding.c **** /* ----------------------- System includes ----------------------------------*/
  32:freemodbus-v1.5.0/modbus/functions/mbfuncholding.c **** #include "stdlib.h"
  33:freemodbus-v1.5.0/modbus/functions/mbfuncholding.c **** #include "string.h"
  34:freemodbus-v1.5.0/modbus/functions/mbfuncholding.c **** 
  35:freemodbus-v1.5.0/modbus/functions/mbfuncholding.c **** /* ----------------------- Platform includes --------------------------------*/
  36:freemodbus-v1.5.0/modbus/functions/mbfuncholding.c **** #include "port.h"
  37:freemodbus-v1.5.0/modbus/functions/mbfuncholding.c **** 
  38:freemodbus-v1.5.0/modbus/functions/mbfuncholding.c **** /* ----------------------- Modbus includes ----------------------------------*/
  39:freemodbus-v1.5.0/modbus/functions/mbfuncholding.c **** #include "mb.h"
  40:freemodbus-v1.5.0/modbus/functions/mbfuncholding.c **** #include "mbframe.h"
  41:freemodbus-v1.5.0/modbus/functions/mbfuncholding.c **** #include "mbproto.h"
  42:freemodbus-v1.5.0/modbus/functions/mbfuncholding.c **** #include "mbconfig.h"
  43:freemodbus-v1.5.0/modbus/functions/mbfuncholding.c **** 
  44:freemodbus-v1.5.0/modbus/functions/mbfuncholding.c **** /* ----------------------- Defines ------------------------------------------*/
  45:freemodbus-v1.5.0/modbus/functions/mbfuncholding.c **** #define MB_PDU_FUNC_READ_ADDR_OFF               ( MB_PDU_DATA_OFF + 0)
  46:freemodbus-v1.5.0/modbus/functions/mbfuncholding.c **** #define MB_PDU_FUNC_READ_REGCNT_OFF             ( MB_PDU_DATA_OFF + 2 )
  47:freemodbus-v1.5.0/modbus/functions/mbfuncholding.c **** #define MB_PDU_FUNC_READ_SIZE                   ( 4 )
  48:freemodbus-v1.5.0/modbus/functions/mbfuncholding.c **** #define MB_PDU_FUNC_READ_REGCNT_MAX             ( 0x007D )
  49:freemodbus-v1.5.0/modbus/functions/mbfuncholding.c **** 
  50:freemodbus-v1.5.0/modbus/functions/mbfuncholding.c **** #define MB_PDU_FUNC_WRITE_ADDR_OFF              ( MB_PDU_DATA_OFF + 0)
  51:freemodbus-v1.5.0/modbus/functions/mbfuncholding.c **** #define MB_PDU_FUNC_WRITE_VALUE_OFF             ( MB_PDU_DATA_OFF + 2 )
  52:freemodbus-v1.5.0/modbus/functions/mbfuncholding.c **** #define MB_PDU_FUNC_WRITE_SIZE                  ( 4 )
  53:freemodbus-v1.5.0/modbus/functions/mbfuncholding.c **** 
  54:freemodbus-v1.5.0/modbus/functions/mbfuncholding.c **** #define MB_PDU_FUNC_WRITE_MUL_ADDR_OFF          ( MB_PDU_DATA_OFF + 0 )
  55:freemodbus-v1.5.0/modbus/functions/mbfuncholding.c **** #define MB_PDU_FUNC_WRITE_MUL_REGCNT_OFF        ( MB_PDU_DATA_OFF + 2 )
  56:freemodbus-v1.5.0/modbus/functions/mbfuncholding.c **** #define MB_PDU_FUNC_WRITE_MUL_BYTECNT_OFF       ( MB_PDU_DATA_OFF + 4 )
  57:freemodbus-v1.5.0/modbus/functions/mbfuncholding.c **** #define MB_PDU_FUNC_WRITE_MUL_VALUES_OFF        ( MB_PDU_DATA_OFF + 5 )
  58:freemodbus-v1.5.0/modbus/functions/mbfuncholding.c **** #define MB_PDU_FUNC_WRITE_MUL_SIZE_MIN          ( 5 )
  59:freemodbus-v1.5.0/modbus/functions/mbfuncholding.c **** #define MB_PDU_FUNC_WRITE_MUL_REGCNT_MAX        ( 0x0078 )
  60:freemodbus-v1.5.0/modbus/functions/mbfuncholding.c **** 
  61:freemodbus-v1.5.0/modbus/functions/mbfuncholding.c **** #define MB_PDU_FUNC_READWRITE_READ_ADDR_OFF     ( MB_PDU_DATA_OFF + 0 )
  62:freemodbus-v1.5.0/modbus/functions/mbfuncholding.c **** #define MB_PDU_FUNC_READWRITE_READ_REGCNT_OFF   ( MB_PDU_DATA_OFF + 2 )
  63:freemodbus-v1.5.0/modbus/functions/mbfuncholding.c **** #define MB_PDU_FUNC_READWRITE_WRITE_ADDR_OFF    ( MB_PDU_DATA_OFF + 4 )
  64:freemodbus-v1.5.0/modbus/functions/mbfuncholding.c **** #define MB_PDU_FUNC_READWRITE_WRITE_REGCNT_OFF  ( MB_PDU_DATA_OFF + 6 )
  65:freemodbus-v1.5.0/modbus/functions/mbfuncholding.c **** #define MB_PDU_FUNC_READWRITE_BYTECNT_OFF       ( MB_PDU_DATA_OFF + 8 )
  66:freemodbus-v1.5.0/modbus/functions/mbfuncholding.c **** #define MB_PDU_FUNC_READWRITE_WRITE_VALUES_OFF  ( MB_PDU_DATA_OFF + 9 )
  67:freemodbus-v1.5.0/modbus/functions/mbfuncholding.c **** #define MB_PDU_FUNC_READWRITE_SIZE_MIN          ( 9 )
  68:freemodbus-v1.5.0/modbus/functions/mbfuncholding.c **** 
  69:freemodbus-v1.5.0/modbus/functions/mbfuncholding.c **** /* ----------------------- Static functions ---------------------------------*/
  70:freemodbus-v1.5.0/modbus/functions/mbfuncholding.c **** eMBException    prveMBError2Exception( eMBErrorCode eErrorCode );
  71:freemodbus-v1.5.0/modbus/functions/mbfuncholding.c **** 
  72:freemodbus-v1.5.0/modbus/functions/mbfuncholding.c **** /* ----------------------- Start implementation -----------------------------*/
  73:freemodbus-v1.5.0/modbus/functions/mbfuncholding.c **** 
  74:freemodbus-v1.5.0/modbus/functions/mbfuncholding.c **** #if MB_FUNC_WRITE_HOLDING_ENABLED > 0
  75:freemodbus-v1.5.0/modbus/functions/mbfuncholding.c **** 
  76:freemodbus-v1.5.0/modbus/functions/mbfuncholding.c **** eMBException
  77:freemodbus-v1.5.0/modbus/functions/mbfuncholding.c **** eMBFuncWriteHoldingRegister( UCHAR * pucFrame, USHORT * usLen )
  78:freemodbus-v1.5.0/modbus/functions/mbfuncholding.c **** {
  88              		.loc 1 78 0
  89              		.cfi_startproc
  90              		@ args = 0, pretend = 0, frame = 0
  91              		@ frame_needed = 0, uses_anonymous_args = 0
  92              	.LVL0:
  93 0000 08B5     		push	{r3, lr}	@
ARM GAS  C:\cygwin\tmp\ccYiVZGM.s 			page 4


  94              		.cfi_def_cfa_offset 8
  95              		.cfi_offset 3, -8
  96              		.cfi_offset 14, -4
  79:freemodbus-v1.5.0/modbus/functions/mbfuncholding.c ****     USHORT          usRegAddress;
  80:freemodbus-v1.5.0/modbus/functions/mbfuncholding.c ****     eMBException    eStatus = MB_EX_NONE;
  81:freemodbus-v1.5.0/modbus/functions/mbfuncholding.c ****     eMBErrorCode    eRegStatus;
  82:freemodbus-v1.5.0/modbus/functions/mbfuncholding.c **** 
  83:freemodbus-v1.5.0/modbus/functions/mbfuncholding.c ****     if( *usLen == ( MB_PDU_FUNC_WRITE_SIZE + MB_PDU_SIZE_MIN ) )
  97              		.loc 1 83 0
  98 0002 0B88     		ldrh	r3, [r1]	@ *usLen_4(D), *usLen_4(D)
  99 0004 052B     		cmp	r3, #5	@ *usLen_4(D),
 100 0006 0FD1     		bne	.L3	@,
  84:freemodbus-v1.5.0/modbus/functions/mbfuncholding.c ****     {
  85:freemodbus-v1.5.0/modbus/functions/mbfuncholding.c ****         usRegAddress = ( USHORT )( pucFrame[MB_PDU_FUNC_WRITE_ADDR_OFF] << 8 );
  86:freemodbus-v1.5.0/modbus/functions/mbfuncholding.c ****         usRegAddress |= ( USHORT )( pucFrame[MB_PDU_FUNC_WRITE_ADDR_OFF + 1] );
 101              		.loc 1 86 0
 102 0008 8378     		ldrb	r3, [r0, #2]	@ zero_extendqisi2	@ MEM[(UCHAR *)pucFrame_6(D) + 2B], MEM[(UCHAR *)pucFrame_6(D
  85:freemodbus-v1.5.0/modbus/functions/mbfuncholding.c ****         usRegAddress |= ( USHORT )( pucFrame[MB_PDU_FUNC_WRITE_ADDR_OFF + 1] );
 103              		.loc 1 85 0
 104 000a 4178     		ldrb	r1, [r0, #1]	@ zero_extendqisi2	@ MEM[(UCHAR *)pucFrame_6(D) + 1B], MEM[(UCHAR *)pucFrame_6(D
 105              	.LVL1:
 106              		.loc 1 86 0
 107 000c 43EA0121 		orr	r1, r3, r1, lsl #8	@, usRegAddress, MEM[(UCHAR *)pucFrame_6(D) + 2B], MEM[(UCHAR *)pucFrame_6(
 108              	.LVL2:
  87:freemodbus-v1.5.0/modbus/functions/mbfuncholding.c ****         usRegAddress++;
 109              		.loc 1 87 0
 110 0010 0131     		adds	r1, r1, #1	@ tmp132, usRegAddress,
 111              	.LVL3:
  88:freemodbus-v1.5.0/modbus/functions/mbfuncholding.c **** 
  89:freemodbus-v1.5.0/modbus/functions/mbfuncholding.c ****         /* Make callback to update the value. */
  90:freemodbus-v1.5.0/modbus/functions/mbfuncholding.c ****         eRegStatus = eMBRegHoldingCB( &pucFrame[MB_PDU_FUNC_WRITE_VALUE_OFF],
 112              		.loc 1 90 0
 113 0012 0122     		movs	r2, #1	@,
 114 0014 0330     		adds	r0, r0, #3	@, pucFrame,
 115              	.LVL4:
 116 0016 89B2     		uxth	r1, r1	@, tmp132
 117              	.LVL5:
 118 0018 1346     		mov	r3, r2	@,
 119              	.LVL6:
 120 001a FFF7FEFF 		bl	eMBRegHoldingCB	@
 121              	.LVL7:
  91:freemodbus-v1.5.0/modbus/functions/mbfuncholding.c ****                                       usRegAddress, 1, MB_REG_WRITE );
  92:freemodbus-v1.5.0/modbus/functions/mbfuncholding.c **** 
  93:freemodbus-v1.5.0/modbus/functions/mbfuncholding.c ****         /* If an error occured convert it into a Modbus exception. */
  94:freemodbus-v1.5.0/modbus/functions/mbfuncholding.c ****         if( eRegStatus != MB_ENOERR )
 122              		.loc 1 94 0
 123 001e 28B1     		cbz	r0, .L4	@,
  95:freemodbus-v1.5.0/modbus/functions/mbfuncholding.c ****         {
  96:freemodbus-v1.5.0/modbus/functions/mbfuncholding.c ****             eStatus = prveMBError2Exception( eRegStatus );
  97:freemodbus-v1.5.0/modbus/functions/mbfuncholding.c ****         }
  98:freemodbus-v1.5.0/modbus/functions/mbfuncholding.c ****     }
  99:freemodbus-v1.5.0/modbus/functions/mbfuncholding.c ****     else
 100:freemodbus-v1.5.0/modbus/functions/mbfuncholding.c ****     {
 101:freemodbus-v1.5.0/modbus/functions/mbfuncholding.c ****         /* Can't be a valid request because the length is incorrect. */
 102:freemodbus-v1.5.0/modbus/functions/mbfuncholding.c ****         eStatus = MB_EX_ILLEGAL_DATA_VALUE;
 103:freemodbus-v1.5.0/modbus/functions/mbfuncholding.c ****     }
 104:freemodbus-v1.5.0/modbus/functions/mbfuncholding.c ****     return eStatus;
ARM GAS  C:\cygwin\tmp\ccYiVZGM.s 			page 5


 105:freemodbus-v1.5.0/modbus/functions/mbfuncholding.c **** }
 124              		.loc 1 105 0
 125 0020 BDE80840 		pop	{r3, lr}	@
 126              		.cfi_remember_state
 127              		.cfi_restore 14
 128              		.cfi_restore 3
 129              		.cfi_def_cfa_offset 0
  96:freemodbus-v1.5.0/modbus/functions/mbfuncholding.c ****         }
 130              		.loc 1 96 0
 131 0024 FFF7FEBF 		b	prveMBError2Exception	@
 132              	.LVL8:
 133              	.L3:
 134              		.cfi_restore_state
 102:freemodbus-v1.5.0/modbus/functions/mbfuncholding.c ****     }
 135              		.loc 1 102 0
 136 0028 0320     		movs	r0, #3	@ eStatus,
 137              	.LVL9:
 138 002a 08BD     		pop	{r3, pc}	@
 139              	.LVL10:
 140              	.L4:
 141              		.loc 1 105 0
 142 002c 08BD     		pop	{r3, pc}	@
 143              		.cfi_endproc
 144              	.LFE0:
 145              		.size	eMBFuncWriteHoldingRegister, .-eMBFuncWriteHoldingRegister
 146              		.section	.text.eMBFuncWriteMultipleHoldingRegister,"ax",%progbits
 147              		.align	1
 148              		.global	eMBFuncWriteMultipleHoldingRegister
 149              		.thumb
 150              		.thumb_func
 151              		.type	eMBFuncWriteMultipleHoldingRegister, %function
 152              	eMBFuncWriteMultipleHoldingRegister:
 153              	.LFB1:
 106:freemodbus-v1.5.0/modbus/functions/mbfuncholding.c **** #endif
 107:freemodbus-v1.5.0/modbus/functions/mbfuncholding.c **** 
 108:freemodbus-v1.5.0/modbus/functions/mbfuncholding.c **** #if MB_FUNC_WRITE_MULTIPLE_HOLDING_ENABLED > 0
 109:freemodbus-v1.5.0/modbus/functions/mbfuncholding.c **** eMBException
 110:freemodbus-v1.5.0/modbus/functions/mbfuncholding.c **** eMBFuncWriteMultipleHoldingRegister( UCHAR * pucFrame, USHORT * usLen )
 111:freemodbus-v1.5.0/modbus/functions/mbfuncholding.c **** {
 154              		.loc 1 111 0
 155              		.cfi_startproc
 156              		@ args = 0, pretend = 0, frame = 0
 157              		@ frame_needed = 0, uses_anonymous_args = 0
 158              	.LVL11:
 112:freemodbus-v1.5.0/modbus/functions/mbfuncholding.c ****     USHORT          usRegAddress;
 113:freemodbus-v1.5.0/modbus/functions/mbfuncholding.c ****     USHORT          usRegCount;
 114:freemodbus-v1.5.0/modbus/functions/mbfuncholding.c ****     UCHAR           ucRegByteCount;
 115:freemodbus-v1.5.0/modbus/functions/mbfuncholding.c **** 
 116:freemodbus-v1.5.0/modbus/functions/mbfuncholding.c ****     eMBException    eStatus = MB_EX_NONE;
 117:freemodbus-v1.5.0/modbus/functions/mbfuncholding.c ****     eMBErrorCode    eRegStatus;
 118:freemodbus-v1.5.0/modbus/functions/mbfuncholding.c **** 
 119:freemodbus-v1.5.0/modbus/functions/mbfuncholding.c ****     if( *usLen >= ( MB_PDU_FUNC_WRITE_MUL_SIZE_MIN + MB_PDU_SIZE_MIN ) )
 159              		.loc 1 119 0
 160 0000 0B88     		ldrh	r3, [r1]	@ *usLen_4(D), *usLen_4(D)
 161 0002 052B     		cmp	r3, #5	@ *usLen_4(D),
 111:freemodbus-v1.5.0/modbus/functions/mbfuncholding.c ****     USHORT          usRegAddress;
 162              		.loc 1 111 0
ARM GAS  C:\cygwin\tmp\ccYiVZGM.s 			page 6


 163 0004 70B5     		push	{r4, r5, r6, lr}	@
 164              		.cfi_def_cfa_offset 16
 165              		.cfi_offset 4, -16
 166              		.cfi_offset 5, -12
 167              		.cfi_offset 6, -8
 168              		.cfi_offset 14, -4
 111:freemodbus-v1.5.0/modbus/functions/mbfuncholding.c ****     USHORT          usRegAddress;
 169              		.loc 1 111 0
 170 0006 0C46     		mov	r4, r1	@ usLen, usLen
 171              		.loc 1 119 0
 172 0008 1DD9     		bls	.L11	@,
 120:freemodbus-v1.5.0/modbus/functions/mbfuncholding.c ****     {
 121:freemodbus-v1.5.0/modbus/functions/mbfuncholding.c ****         usRegAddress = ( USHORT )( pucFrame[MB_PDU_FUNC_WRITE_MUL_ADDR_OFF] << 8 );
 122:freemodbus-v1.5.0/modbus/functions/mbfuncholding.c ****         usRegAddress |= ( USHORT )( pucFrame[MB_PDU_FUNC_WRITE_MUL_ADDR_OFF + 1] );
 123:freemodbus-v1.5.0/modbus/functions/mbfuncholding.c ****         usRegAddress++;
 124:freemodbus-v1.5.0/modbus/functions/mbfuncholding.c **** 
 125:freemodbus-v1.5.0/modbus/functions/mbfuncholding.c ****         usRegCount = ( USHORT )( pucFrame[MB_PDU_FUNC_WRITE_MUL_REGCNT_OFF] << 8 );
 126:freemodbus-v1.5.0/modbus/functions/mbfuncholding.c ****         usRegCount |= ( USHORT )( pucFrame[MB_PDU_FUNC_WRITE_MUL_REGCNT_OFF + 1] );
 173              		.loc 1 126 0
 174 000a 0379     		ldrb	r3, [r0, #4]	@ zero_extendqisi2	@ MEM[(UCHAR *)pucFrame_6(D) + 4B], MEM[(UCHAR *)pucFrame_6(D
 125:freemodbus-v1.5.0/modbus/functions/mbfuncholding.c ****         usRegCount |= ( USHORT )( pucFrame[MB_PDU_FUNC_WRITE_MUL_REGCNT_OFF + 1] );
 175              		.loc 1 125 0
 176 000c C278     		ldrb	r2, [r0, #3]	@ zero_extendqisi2	@ MEM[(UCHAR *)pucFrame_6(D) + 3B], MEM[(UCHAR *)pucFrame_6(D
 121:freemodbus-v1.5.0/modbus/functions/mbfuncholding.c ****         usRegAddress |= ( USHORT )( pucFrame[MB_PDU_FUNC_WRITE_MUL_ADDR_OFF + 1] );
 177              		.loc 1 121 0
 178 000e 4578     		ldrb	r5, [r0, #1]	@ zero_extendqisi2	@ D.5233, MEM[(UCHAR *)pucFrame_6(D) + 1B]
 179              	.LVL12:
 122:freemodbus-v1.5.0/modbus/functions/mbfuncholding.c ****         usRegAddress++;
 180              		.loc 1 122 0
 181 0010 8178     		ldrb	r1, [r0, #2]	@ zero_extendqisi2	@ D.5233, MEM[(UCHAR *)pucFrame_6(D) + 2B]
 182              	.LVL13:
 127:freemodbus-v1.5.0/modbus/functions/mbfuncholding.c **** 
 128:freemodbus-v1.5.0/modbus/functions/mbfuncholding.c ****         ucRegByteCount = pucFrame[MB_PDU_FUNC_WRITE_MUL_BYTECNT_OFF];
 183              		.loc 1 128 0
 184 0012 4679     		ldrb	r6, [r0, #5]	@ zero_extendqisi2	@ ucRegByteCount, MEM[(UCHAR *)pucFrame_6(D) + 5B]
 126:freemodbus-v1.5.0/modbus/functions/mbfuncholding.c **** 
 185              		.loc 1 126 0
 186 0014 43EA0222 		orr	r2, r3, r2, lsl #8	@, usRegCount, MEM[(UCHAR *)pucFrame_6(D) + 4B], MEM[(UCHAR *)pucFrame_6(D)
 187              	.LVL14:
 129:freemodbus-v1.5.0/modbus/functions/mbfuncholding.c **** 
 130:freemodbus-v1.5.0/modbus/functions/mbfuncholding.c ****         if( ( usRegCount >= 1 ) &&
 188              		.loc 1 130 0
 189 0018 531E     		subs	r3, r2, #1	@ tmp142, usRegCount,
 190 001a 772B     		cmp	r3, #119	@ tmp142,
 191 001c 13D8     		bhi	.L11	@,
 131:freemodbus-v1.5.0/modbus/functions/mbfuncholding.c ****             ( usRegCount <= MB_PDU_FUNC_WRITE_MUL_REGCNT_MAX ) &&
 132:freemodbus-v1.5.0/modbus/functions/mbfuncholding.c ****             ( ucRegByteCount == ( UCHAR ) ( 2 * usRegCount ) ) )
 192              		.loc 1 132 0
 193 001e 5300     		lsls	r3, r2, #1	@ tmp144, usRegCount,
 131:freemodbus-v1.5.0/modbus/functions/mbfuncholding.c ****             ( usRegCount <= MB_PDU_FUNC_WRITE_MUL_REGCNT_MAX ) &&
 194              		.loc 1 131 0
 195 0020 DBB2     		uxtb	r3, r3	@ tmp145, tmp144
 196 0022 9E42     		cmp	r6, r3	@ ucRegByteCount, tmp145
 197 0024 0FD1     		bne	.L11	@,
 122:freemodbus-v1.5.0/modbus/functions/mbfuncholding.c ****         usRegAddress++;
 198              		.loc 1 122 0
 199 0026 41EA0521 		orr	r1, r1, r5, lsl #8	@, usRegAddress, D.5233, D.5233,
ARM GAS  C:\cygwin\tmp\ccYiVZGM.s 			page 7


 200              	.LVL15:
 123:freemodbus-v1.5.0/modbus/functions/mbfuncholding.c **** 
 201              		.loc 1 123 0
 202 002a 0131     		adds	r1, r1, #1	@ tmp151, usRegAddress,
 133:freemodbus-v1.5.0/modbus/functions/mbfuncholding.c ****         {
 134:freemodbus-v1.5.0/modbus/functions/mbfuncholding.c ****             /* Make callback to update the register values. */
 135:freemodbus-v1.5.0/modbus/functions/mbfuncholding.c ****             eRegStatus =
 203              		.loc 1 135 0
 204 002c 0630     		adds	r0, r0, #6	@, pucFrame,
 205              	.LVL16:
 206 002e 89B2     		uxth	r1, r1	@, tmp151
 207 0030 0123     		movs	r3, #1	@,
 208 0032 FFF7FEFF 		bl	eMBRegHoldingCB	@
 209              	.LVL17:
 136:freemodbus-v1.5.0/modbus/functions/mbfuncholding.c ****                 eMBRegHoldingCB( &pucFrame[MB_PDU_FUNC_WRITE_MUL_VALUES_OFF],
 137:freemodbus-v1.5.0/modbus/functions/mbfuncholding.c ****                                  usRegAddress, usRegCount, MB_REG_WRITE );
 138:freemodbus-v1.5.0/modbus/functions/mbfuncholding.c **** 
 139:freemodbus-v1.5.0/modbus/functions/mbfuncholding.c ****             /* If an error occured convert it into a Modbus exception. */
 140:freemodbus-v1.5.0/modbus/functions/mbfuncholding.c ****             if( eRegStatus != MB_ENOERR )
 210              		.loc 1 140 0
 211 0036 18B1     		cbz	r0, .L8	@,
 141:freemodbus-v1.5.0/modbus/functions/mbfuncholding.c ****             {
 142:freemodbus-v1.5.0/modbus/functions/mbfuncholding.c ****                 eStatus = prveMBError2Exception( eRegStatus );
 143:freemodbus-v1.5.0/modbus/functions/mbfuncholding.c ****             }
 144:freemodbus-v1.5.0/modbus/functions/mbfuncholding.c ****             else
 145:freemodbus-v1.5.0/modbus/functions/mbfuncholding.c ****             {
 146:freemodbus-v1.5.0/modbus/functions/mbfuncholding.c ****                 /* The response contains the function code, the starting
 147:freemodbus-v1.5.0/modbus/functions/mbfuncholding.c ****                  * address and the quantity of registers. We reuse the
 148:freemodbus-v1.5.0/modbus/functions/mbfuncholding.c ****                  * old values in the buffer because they are still valid.
 149:freemodbus-v1.5.0/modbus/functions/mbfuncholding.c ****                  */
 150:freemodbus-v1.5.0/modbus/functions/mbfuncholding.c ****                 *usLen = MB_PDU_FUNC_WRITE_MUL_BYTECNT_OFF;
 151:freemodbus-v1.5.0/modbus/functions/mbfuncholding.c ****             }
 152:freemodbus-v1.5.0/modbus/functions/mbfuncholding.c ****         }
 153:freemodbus-v1.5.0/modbus/functions/mbfuncholding.c ****         else
 154:freemodbus-v1.5.0/modbus/functions/mbfuncholding.c ****         {
 155:freemodbus-v1.5.0/modbus/functions/mbfuncholding.c ****             eStatus = MB_EX_ILLEGAL_DATA_VALUE;
 156:freemodbus-v1.5.0/modbus/functions/mbfuncholding.c ****         }
 157:freemodbus-v1.5.0/modbus/functions/mbfuncholding.c ****     }
 158:freemodbus-v1.5.0/modbus/functions/mbfuncholding.c ****     else
 159:freemodbus-v1.5.0/modbus/functions/mbfuncholding.c ****     {
 160:freemodbus-v1.5.0/modbus/functions/mbfuncholding.c ****         /* Can't be a valid request because the length is incorrect. */
 161:freemodbus-v1.5.0/modbus/functions/mbfuncholding.c ****         eStatus = MB_EX_ILLEGAL_DATA_VALUE;
 162:freemodbus-v1.5.0/modbus/functions/mbfuncholding.c ****     }
 163:freemodbus-v1.5.0/modbus/functions/mbfuncholding.c ****     return eStatus;
 164:freemodbus-v1.5.0/modbus/functions/mbfuncholding.c **** }
 212              		.loc 1 164 0
 213 0038 BDE87040 		pop	{r4, r5, r6, lr}	@
 214              		.cfi_remember_state
 215              		.cfi_restore 14
 216              		.cfi_restore 6
 217              		.cfi_restore 5
 218              		.cfi_restore 4
 219              		.cfi_def_cfa_offset 0
 220              	.LVL18:
 142:freemodbus-v1.5.0/modbus/functions/mbfuncholding.c ****             }
 221              		.loc 1 142 0
 222 003c FFF7FEBF 		b	prveMBError2Exception	@
ARM GAS  C:\cygwin\tmp\ccYiVZGM.s 			page 8


 223              	.LVL19:
 224              	.L8:
 225              		.cfi_restore_state
 150:freemodbus-v1.5.0/modbus/functions/mbfuncholding.c ****             }
 226              		.loc 1 150 0
 227 0040 0522     		movs	r2, #5	@ tmp156,
 228 0042 2280     		strh	r2, [r4]	@ movhi	@ tmp156, *usLen_4(D)
 229 0044 70BD     		pop	{r4, r5, r6, pc}	@
 230              	.LVL20:
 231              	.L11:
 161:freemodbus-v1.5.0/modbus/functions/mbfuncholding.c ****     }
 232              		.loc 1 161 0
 233 0046 0320     		movs	r0, #3	@ eStatus,
 234              	.LVL21:
 235              		.loc 1 164 0
 236 0048 70BD     		pop	{r4, r5, r6, pc}	@
 237              		.cfi_endproc
 238              	.LFE1:
 239              		.size	eMBFuncWriteMultipleHoldingRegister, .-eMBFuncWriteMultipleHoldingRegister
 240              		.section	.text.eMBFuncReadHoldingRegister,"ax",%progbits
 241              		.align	1
 242              		.global	eMBFuncReadHoldingRegister
 243              		.thumb
 244              		.thumb_func
 245              		.type	eMBFuncReadHoldingRegister, %function
 246              	eMBFuncReadHoldingRegister:
 247              	.LFB2:
 165:freemodbus-v1.5.0/modbus/functions/mbfuncholding.c **** #endif
 166:freemodbus-v1.5.0/modbus/functions/mbfuncholding.c **** 
 167:freemodbus-v1.5.0/modbus/functions/mbfuncholding.c **** #if MB_FUNC_READ_HOLDING_ENABLED > 0
 168:freemodbus-v1.5.0/modbus/functions/mbfuncholding.c **** 
 169:freemodbus-v1.5.0/modbus/functions/mbfuncholding.c **** eMBException
 170:freemodbus-v1.5.0/modbus/functions/mbfuncholding.c **** eMBFuncReadHoldingRegister( UCHAR * pucFrame, USHORT * usLen )
 171:freemodbus-v1.5.0/modbus/functions/mbfuncholding.c **** {
 248              		.loc 1 171 0
 249              		.cfi_startproc
 250              		@ args = 0, pretend = 0, frame = 0
 251              		@ frame_needed = 0, uses_anonymous_args = 0
 252              	.LVL22:
 253 0000 F8B5     		push	{r3, r4, r5, r6, r7, lr}	@
 254              		.cfi_def_cfa_offset 24
 255              		.cfi_offset 3, -24
 256              		.cfi_offset 4, -20
 257              		.cfi_offset 5, -16
 258              		.cfi_offset 6, -12
 259              		.cfi_offset 7, -8
 260              		.cfi_offset 14, -4
 172:freemodbus-v1.5.0/modbus/functions/mbfuncholding.c ****     USHORT          usRegAddress;
 173:freemodbus-v1.5.0/modbus/functions/mbfuncholding.c ****     USHORT          usRegCount;
 174:freemodbus-v1.5.0/modbus/functions/mbfuncholding.c ****     UCHAR          *pucFrameCur;
 175:freemodbus-v1.5.0/modbus/functions/mbfuncholding.c **** 
 176:freemodbus-v1.5.0/modbus/functions/mbfuncholding.c ****     eMBException    eStatus = MB_EX_NONE;
 177:freemodbus-v1.5.0/modbus/functions/mbfuncholding.c ****     eMBErrorCode    eRegStatus;
 178:freemodbus-v1.5.0/modbus/functions/mbfuncholding.c **** 
 179:freemodbus-v1.5.0/modbus/functions/mbfuncholding.c ****     if( *usLen == ( MB_PDU_FUNC_READ_SIZE + MB_PDU_SIZE_MIN ) )
 261              		.loc 1 179 0
 262 0002 0B88     		ldrh	r3, [r1]	@ *usLen_4(D), *usLen_4(D)
ARM GAS  C:\cygwin\tmp\ccYiVZGM.s 			page 9


 263 0004 052B     		cmp	r3, #5	@ *usLen_4(D),
 171:freemodbus-v1.5.0/modbus/functions/mbfuncholding.c ****     USHORT          usRegAddress;
 264              		.loc 1 171 0
 265 0006 0C46     		mov	r4, r1	@ usLen, usLen
 266              		.loc 1 179 0
 267 0008 25D1     		bne	.L15	@,
 180:freemodbus-v1.5.0/modbus/functions/mbfuncholding.c ****     {
 181:freemodbus-v1.5.0/modbus/functions/mbfuncholding.c ****         usRegAddress = ( USHORT )( pucFrame[MB_PDU_FUNC_READ_ADDR_OFF] << 8 );
 182:freemodbus-v1.5.0/modbus/functions/mbfuncholding.c ****         usRegAddress |= ( USHORT )( pucFrame[MB_PDU_FUNC_READ_ADDR_OFF + 1] );
 183:freemodbus-v1.5.0/modbus/functions/mbfuncholding.c ****         usRegAddress++;
 184:freemodbus-v1.5.0/modbus/functions/mbfuncholding.c **** 
 185:freemodbus-v1.5.0/modbus/functions/mbfuncholding.c ****         usRegCount = ( USHORT )( pucFrame[MB_PDU_FUNC_READ_REGCNT_OFF] << 8 );
 186:freemodbus-v1.5.0/modbus/functions/mbfuncholding.c ****         usRegCount = ( USHORT )( pucFrame[MB_PDU_FUNC_READ_REGCNT_OFF + 1] );
 268              		.loc 1 186 0
 269 000a 0579     		ldrb	r5, [r0, #4]	@ zero_extendqisi2	@ D.5238, MEM[(UCHAR *)pucFrame_6(D) + 4B]
 181:freemodbus-v1.5.0/modbus/functions/mbfuncholding.c ****         usRegAddress |= ( USHORT )( pucFrame[MB_PDU_FUNC_READ_ADDR_OFF + 1] );
 270              		.loc 1 181 0
 271 000c 4778     		ldrb	r7, [r0, #1]	@ zero_extendqisi2	@ D.5238, MEM[(UCHAR *)pucFrame_6(D) + 1B]
 272              	.LVL23:
 182:freemodbus-v1.5.0/modbus/functions/mbfuncholding.c ****         usRegAddress++;
 273              		.loc 1 182 0
 274 000e 8178     		ldrb	r1, [r0, #2]	@ zero_extendqisi2	@ D.5238, MEM[(UCHAR *)pucFrame_6(D) + 2B]
 275              	.LVL24:
 276              		.loc 1 186 0
 277 0010 AEB2     		uxth	r6, r5	@ usRegCount, D.5238
 278              	.LVL25:
 187:freemodbus-v1.5.0/modbus/functions/mbfuncholding.c **** 
 188:freemodbus-v1.5.0/modbus/functions/mbfuncholding.c ****         /* Check if the number of registers to read is valid. If not
 189:freemodbus-v1.5.0/modbus/functions/mbfuncholding.c ****          * return Modbus illegal data value exception. 
 190:freemodbus-v1.5.0/modbus/functions/mbfuncholding.c ****          */
 191:freemodbus-v1.5.0/modbus/functions/mbfuncholding.c ****         if( ( usRegCount >= 1 ) && ( usRegCount <= MB_PDU_FUNC_READ_REGCNT_MAX ) )
 279              		.loc 1 191 0
 280 0012 731E     		subs	r3, r6, #1	@ tmp137, usRegCount,
 281 0014 7C2B     		cmp	r3, #124	@ tmp137,
 282 0016 4FF00302 		mov	r2, #3	@ eStatus,
 283 001a 1CD8     		bhi	.L15	@,
 284              	.LVL26:
 192:freemodbus-v1.5.0/modbus/functions/mbfuncholding.c ****         {
 193:freemodbus-v1.5.0/modbus/functions/mbfuncholding.c ****             /* Set the current PDU data pointer to the beginning. */
 194:freemodbus-v1.5.0/modbus/functions/mbfuncholding.c ****             pucFrameCur = &pucFrame[MB_PDU_FUNC_OFF];
 195:freemodbus-v1.5.0/modbus/functions/mbfuncholding.c ****             *usLen = MB_PDU_FUNC_OFF;
 285              		.loc 1 195 0
 286 001c 0023     		movs	r3, #0	@ tmp139,
 287 001e 2380     		strh	r3, [r4]	@ movhi	@ tmp139, *usLen_4(D)
 288              	.LVL27:
 196:freemodbus-v1.5.0/modbus/functions/mbfuncholding.c **** 
 197:freemodbus-v1.5.0/modbus/functions/mbfuncholding.c ****             /* First byte contains the function code. */
 198:freemodbus-v1.5.0/modbus/functions/mbfuncholding.c ****             *pucFrameCur++ = MB_FUNC_READ_HOLDING_REGISTER;
 289              		.loc 1 198 0
 290 0020 0270     		strb	r2, [r0]	@ eStatus, *pucFrame_6(D)
 199:freemodbus-v1.5.0/modbus/functions/mbfuncholding.c ****             *usLen += 1;
 291              		.loc 1 199 0
 292 0022 2288     		ldrh	r2, [r4]	@, *usLen_4(D)
 200:freemodbus-v1.5.0/modbus/functions/mbfuncholding.c **** 
 201:freemodbus-v1.5.0/modbus/functions/mbfuncholding.c ****             /* Second byte in the response contain the number of bytes. */
 202:freemodbus-v1.5.0/modbus/functions/mbfuncholding.c ****             *pucFrameCur++ = ( UCHAR ) ( usRegCount * 2 );
 293              		.loc 1 202 0
ARM GAS  C:\cygwin\tmp\ccYiVZGM.s 			page 10


 294 0024 6D00     		lsls	r5, r5, #1	@ tmp145, D.5238,
 199:freemodbus-v1.5.0/modbus/functions/mbfuncholding.c ****             *usLen += 1;
 295              		.loc 1 199 0
 296 0026 0132     		adds	r2, r2, #1	@ tmp143, *usLen_4(D),
 297 0028 2280     		strh	r2, [r4]	@ movhi	@ tmp143, *usLen_4(D)
 298              	.LVL28:
 299              		.loc 1 202 0
 300 002a 4570     		strb	r5, [r0, #1]	@ tmp145, MEM[(UCHAR *)pucFrame_6(D) + 1B]
 203:freemodbus-v1.5.0/modbus/functions/mbfuncholding.c ****             *usLen += 1;
 301              		.loc 1 203 0
 302 002c 2288     		ldrh	r2, [r4]	@, *usLen_4(D)
 182:freemodbus-v1.5.0/modbus/functions/mbfuncholding.c ****         usRegAddress++;
 303              		.loc 1 182 0
 304 002e 41EA0721 		orr	r1, r1, r7, lsl #8	@, usRegAddress, D.5238, D.5238,
 305              	.LVL29:
 306              		.loc 1 203 0
 307 0032 0132     		adds	r2, r2, #1	@ tmp148, *usLen_4(D),
 183:freemodbus-v1.5.0/modbus/functions/mbfuncholding.c **** 
 308              		.loc 1 183 0
 309 0034 0131     		adds	r1, r1, #1	@ tmp155, usRegAddress,
 310              		.loc 1 203 0
 311 0036 2280     		strh	r2, [r4]	@ movhi	@ tmp148, *usLen_4(D)
 204:freemodbus-v1.5.0/modbus/functions/mbfuncholding.c **** 
 205:freemodbus-v1.5.0/modbus/functions/mbfuncholding.c ****             /* Make callback to fill the buffer. */
 206:freemodbus-v1.5.0/modbus/functions/mbfuncholding.c ****             eRegStatus = eMBRegHoldingCB( pucFrameCur, usRegAddress, usRegCount, MB_REG_READ );
 312              		.loc 1 206 0
 313 0038 0230     		adds	r0, r0, #2	@, pucFrame,
 314              	.LVL30:
 315 003a 89B2     		uxth	r1, r1	@, tmp155
 316 003c 3246     		mov	r2, r6	@, usRegCount
 317 003e FFF7FEFF 		bl	eMBRegHoldingCB	@
 318              	.LVL31:
 207:freemodbus-v1.5.0/modbus/functions/mbfuncholding.c ****             /* If an error occured convert it into a Modbus exception. */
 208:freemodbus-v1.5.0/modbus/functions/mbfuncholding.c ****             if( eRegStatus != MB_ENOERR )
 319              		.loc 1 208 0
 320 0042 18B1     		cbz	r0, .L14	@,
 209:freemodbus-v1.5.0/modbus/functions/mbfuncholding.c ****             {
 210:freemodbus-v1.5.0/modbus/functions/mbfuncholding.c ****                 eStatus = prveMBError2Exception( eRegStatus );
 211:freemodbus-v1.5.0/modbus/functions/mbfuncholding.c ****             }
 212:freemodbus-v1.5.0/modbus/functions/mbfuncholding.c ****             else
 213:freemodbus-v1.5.0/modbus/functions/mbfuncholding.c ****             {
 214:freemodbus-v1.5.0/modbus/functions/mbfuncholding.c ****                 *usLen += usRegCount * 2;
 215:freemodbus-v1.5.0/modbus/functions/mbfuncholding.c ****             }
 216:freemodbus-v1.5.0/modbus/functions/mbfuncholding.c ****         }
 217:freemodbus-v1.5.0/modbus/functions/mbfuncholding.c ****         else
 218:freemodbus-v1.5.0/modbus/functions/mbfuncholding.c ****         {
 219:freemodbus-v1.5.0/modbus/functions/mbfuncholding.c ****             eStatus = MB_EX_ILLEGAL_DATA_VALUE;
 220:freemodbus-v1.5.0/modbus/functions/mbfuncholding.c ****         }
 221:freemodbus-v1.5.0/modbus/functions/mbfuncholding.c ****     }
 222:freemodbus-v1.5.0/modbus/functions/mbfuncholding.c ****     else
 223:freemodbus-v1.5.0/modbus/functions/mbfuncholding.c ****     {
 224:freemodbus-v1.5.0/modbus/functions/mbfuncholding.c ****         /* Can't be a valid request because the length is incorrect. */
 225:freemodbus-v1.5.0/modbus/functions/mbfuncholding.c ****         eStatus = MB_EX_ILLEGAL_DATA_VALUE;
 226:freemodbus-v1.5.0/modbus/functions/mbfuncholding.c ****     }
 227:freemodbus-v1.5.0/modbus/functions/mbfuncholding.c ****     return eStatus;
 228:freemodbus-v1.5.0/modbus/functions/mbfuncholding.c **** }
 321              		.loc 1 228 0
ARM GAS  C:\cygwin\tmp\ccYiVZGM.s 			page 11


 322 0044 BDE8F840 		pop	{r3, r4, r5, r6, r7, lr}	@
 323              		.cfi_remember_state
 324              		.cfi_restore 14
 325              		.cfi_restore 7
 326              		.cfi_restore 6
 327              		.cfi_restore 5
 328              		.cfi_restore 4
 329              		.cfi_restore 3
 330              		.cfi_def_cfa_offset 0
 331              	.LVL32:
 210:freemodbus-v1.5.0/modbus/functions/mbfuncholding.c ****             }
 332              		.loc 1 210 0
 333 0048 FFF7FEBF 		b	prveMBError2Exception	@
 334              	.LVL33:
 335              	.L14:
 336              		.cfi_restore_state
 214:freemodbus-v1.5.0/modbus/functions/mbfuncholding.c ****             }
 337              		.loc 1 214 0
 338 004c 2288     		ldrh	r2, [r4]	@, *usLen_4(D)
 339 004e 02EB4606 		add	r6, r2, r6, lsl #1	@, tmp162, *usLen_4(D), usRegCount,
 340              	.LVL34:
 341 0052 2680     		strh	r6, [r4]	@ movhi	@ tmp162, *usLen_4(D)
 342 0054 F8BD     		pop	{r3, r4, r5, r6, r7, pc}	@
 343              	.LVL35:
 344              	.L15:
 225:freemodbus-v1.5.0/modbus/functions/mbfuncholding.c ****     }
 345              		.loc 1 225 0
 346 0056 0320     		movs	r0, #3	@ eStatus,
 347              	.LVL36:
 348 0058 F8BD     		pop	{r3, r4, r5, r6, r7, pc}	@
 349              		.cfi_endproc
 350              	.LFE2:
 351              		.size	eMBFuncReadHoldingRegister, .-eMBFuncReadHoldingRegister
 352              		.section	.text.eMBFuncReadWriteMultipleHoldingRegister,"ax",%progbits
 353              		.align	1
 354              		.global	eMBFuncReadWriteMultipleHoldingRegister
 355              		.thumb
 356              		.thumb_func
 357              		.type	eMBFuncReadWriteMultipleHoldingRegister, %function
 358              	eMBFuncReadWriteMultipleHoldingRegister:
 359              	.LFB3:
 229:freemodbus-v1.5.0/modbus/functions/mbfuncholding.c **** 
 230:freemodbus-v1.5.0/modbus/functions/mbfuncholding.c **** #endif
 231:freemodbus-v1.5.0/modbus/functions/mbfuncholding.c **** 
 232:freemodbus-v1.5.0/modbus/functions/mbfuncholding.c **** #if MB_FUNC_READWRITE_HOLDING_ENABLED > 0
 233:freemodbus-v1.5.0/modbus/functions/mbfuncholding.c **** 
 234:freemodbus-v1.5.0/modbus/functions/mbfuncholding.c **** eMBException
 235:freemodbus-v1.5.0/modbus/functions/mbfuncholding.c **** eMBFuncReadWriteMultipleHoldingRegister( UCHAR * pucFrame, USHORT * usLen )
 236:freemodbus-v1.5.0/modbus/functions/mbfuncholding.c **** {
 360              		.loc 1 236 0
 361              		.cfi_startproc
 362              		@ args = 0, pretend = 0, frame = 0
 363              		@ frame_needed = 0, uses_anonymous_args = 0
 364              	.LVL37:
 365 0000 2DE9F843 		push	{r3, r4, r5, r6, r7, r8, r9, lr}	@
 366              		.cfi_def_cfa_offset 32
 367              		.cfi_offset 3, -32
ARM GAS  C:\cygwin\tmp\ccYiVZGM.s 			page 12


 368              		.cfi_offset 4, -28
 369              		.cfi_offset 5, -24
 370              		.cfi_offset 6, -20
 371              		.cfi_offset 7, -16
 372              		.cfi_offset 8, -12
 373              		.cfi_offset 9, -8
 374              		.cfi_offset 14, -4
 237:freemodbus-v1.5.0/modbus/functions/mbfuncholding.c ****     USHORT          usRegReadAddress;
 238:freemodbus-v1.5.0/modbus/functions/mbfuncholding.c ****     USHORT          usRegReadCount;
 239:freemodbus-v1.5.0/modbus/functions/mbfuncholding.c ****     USHORT          usRegWriteAddress;
 240:freemodbus-v1.5.0/modbus/functions/mbfuncholding.c ****     USHORT          usRegWriteCount;
 241:freemodbus-v1.5.0/modbus/functions/mbfuncholding.c ****     UCHAR           ucRegWriteByteCount;
 242:freemodbus-v1.5.0/modbus/functions/mbfuncholding.c ****     UCHAR          *pucFrameCur;
 243:freemodbus-v1.5.0/modbus/functions/mbfuncholding.c **** 
 244:freemodbus-v1.5.0/modbus/functions/mbfuncholding.c ****     eMBException    eStatus = MB_EX_NONE;
 245:freemodbus-v1.5.0/modbus/functions/mbfuncholding.c ****     eMBErrorCode    eRegStatus;
 246:freemodbus-v1.5.0/modbus/functions/mbfuncholding.c **** 
 247:freemodbus-v1.5.0/modbus/functions/mbfuncholding.c ****     if( *usLen >= ( MB_PDU_FUNC_READWRITE_SIZE_MIN + MB_PDU_SIZE_MIN ) )
 375              		.loc 1 247 0
 376 0004 0B88     		ldrh	r3, [r1]	@ *usLen_6(D), *usLen_6(D)
 377 0006 092B     		cmp	r3, #9	@ *usLen_6(D),
 236:freemodbus-v1.5.0/modbus/functions/mbfuncholding.c ****     USHORT          usRegReadAddress;
 378              		.loc 1 236 0
 379 0008 0446     		mov	r4, r0	@ pucFrame, pucFrame
 380 000a 0D46     		mov	r5, r1	@ usLen, usLen
 381              		.loc 1 247 0
 382 000c 40D9     		bls	.L20	@,
 248:freemodbus-v1.5.0/modbus/functions/mbfuncholding.c ****     {
 249:freemodbus-v1.5.0/modbus/functions/mbfuncholding.c ****         usRegReadAddress = ( USHORT )( pucFrame[MB_PDU_FUNC_READWRITE_READ_ADDR_OFF] << 8U );
 250:freemodbus-v1.5.0/modbus/functions/mbfuncholding.c ****         usRegReadAddress |= ( USHORT )( pucFrame[MB_PDU_FUNC_READWRITE_READ_ADDR_OFF + 1] );
 251:freemodbus-v1.5.0/modbus/functions/mbfuncholding.c ****         usRegReadAddress++;
 252:freemodbus-v1.5.0/modbus/functions/mbfuncholding.c **** 
 253:freemodbus-v1.5.0/modbus/functions/mbfuncholding.c ****         usRegReadCount = ( USHORT )( pucFrame[MB_PDU_FUNC_READWRITE_READ_REGCNT_OFF] << 8U );
 254:freemodbus-v1.5.0/modbus/functions/mbfuncholding.c ****         usRegReadCount |= ( USHORT )( pucFrame[MB_PDU_FUNC_READWRITE_READ_REGCNT_OFF + 1] );
 383              		.loc 1 254 0
 384 000e 0379     		ldrb	r3, [r0, #4]	@ zero_extendqisi2	@ MEM[(UCHAR *)pucFrame_8(D) + 4B], MEM[(UCHAR *)pucFrame_8(D
 253:freemodbus-v1.5.0/modbus/functions/mbfuncholding.c ****         usRegReadCount |= ( USHORT )( pucFrame[MB_PDU_FUNC_READWRITE_READ_REGCNT_OFF + 1] );
 385              		.loc 1 253 0
 386 0010 C678     		ldrb	r6, [r0, #3]	@ zero_extendqisi2	@ MEM[(UCHAR *)pucFrame_8(D) + 3B], MEM[(UCHAR *)pucFrame_8(D
 249:freemodbus-v1.5.0/modbus/functions/mbfuncholding.c ****         usRegReadAddress |= ( USHORT )( pucFrame[MB_PDU_FUNC_READWRITE_READ_ADDR_OFF + 1] );
 387              		.loc 1 249 0
 388 0012 90F80180 		ldrb	r8, [r0, #1]	@ zero_extendqisi2	@ D.5242, MEM[(UCHAR *)pucFrame_8(D) + 1B]
 389              	.LVL38:
 250:freemodbus-v1.5.0/modbus/functions/mbfuncholding.c ****         usRegReadAddress++;
 390              		.loc 1 250 0
 391 0016 8778     		ldrb	r7, [r0, #2]	@ zero_extendqisi2	@ D.5242, MEM[(UCHAR *)pucFrame_8(D) + 2B]
 392              	.LVL39:
 255:freemodbus-v1.5.0/modbus/functions/mbfuncholding.c **** 
 256:freemodbus-v1.5.0/modbus/functions/mbfuncholding.c ****         usRegWriteAddress = ( USHORT )( pucFrame[MB_PDU_FUNC_READWRITE_WRITE_ADDR_OFF] << 8U );
 257:freemodbus-v1.5.0/modbus/functions/mbfuncholding.c ****         usRegWriteAddress |= ( USHORT )( pucFrame[MB_PDU_FUNC_READWRITE_WRITE_ADDR_OFF + 1] );
 393              		.loc 1 257 0
 394 0018 A179     		ldrb	r1, [r4, #6]	@ zero_extendqisi2	@ D.5242, MEM[(UCHAR *)pucFrame_8(D) + 6B]
 395              	.LVL40:
 256:freemodbus-v1.5.0/modbus/functions/mbfuncholding.c ****         usRegWriteAddress |= ( USHORT )( pucFrame[MB_PDU_FUNC_READWRITE_WRITE_ADDR_OFF + 1] );
 396              		.loc 1 256 0
 397 001a 4079     		ldrb	r0, [r0, #5]	@ zero_extendqisi2	@ D.5242, MEM[(UCHAR *)pucFrame_8(D) + 5B]
 398              	.LVL41:
ARM GAS  C:\cygwin\tmp\ccYiVZGM.s 			page 13


 258:freemodbus-v1.5.0/modbus/functions/mbfuncholding.c ****         usRegWriteAddress++;
 259:freemodbus-v1.5.0/modbus/functions/mbfuncholding.c **** 
 260:freemodbus-v1.5.0/modbus/functions/mbfuncholding.c ****         usRegWriteCount = ( USHORT )( pucFrame[MB_PDU_FUNC_READWRITE_WRITE_REGCNT_OFF] << 8U );
 399              		.loc 1 260 0
 400 001c E279     		ldrb	r2, [r4, #7]	@ zero_extendqisi2	@ D.5242, MEM[(UCHAR *)pucFrame_8(D) + 7B]
 261:freemodbus-v1.5.0/modbus/functions/mbfuncholding.c ****         usRegWriteCount |= ( USHORT )( pucFrame[MB_PDU_FUNC_READWRITE_WRITE_REGCNT_OFF + 1] );
 262:freemodbus-v1.5.0/modbus/functions/mbfuncholding.c **** 
 263:freemodbus-v1.5.0/modbus/functions/mbfuncholding.c ****         ucRegWriteByteCount = pucFrame[MB_PDU_FUNC_READWRITE_BYTECNT_OFF];
 401              		.loc 1 263 0
 402 001e 94F809E0 		ldrb	lr, [r4, #9]	@ zero_extendqisi2	@ ucRegWriteByteCount, MEM[(UCHAR *)pucFrame_8(D) + 9B]
 254:freemodbus-v1.5.0/modbus/functions/mbfuncholding.c **** 
 403              		.loc 1 254 0
 404 0022 43EA0626 		orr	r6, r3, r6, lsl #8	@, usRegReadCount, MEM[(UCHAR *)pucFrame_8(D) + 4B], MEM[(UCHAR *)pucFrame_
 405              	.LVL42:
 264:freemodbus-v1.5.0/modbus/functions/mbfuncholding.c **** 
 265:freemodbus-v1.5.0/modbus/functions/mbfuncholding.c ****         if( ( usRegReadCount >= 1 ) && ( usRegReadCount <= 0x7D ) &&
 406              		.loc 1 265 0
 407 0026 06F1FF3C 		add	ip, r6, #-1	@ tmp167, usRegReadCount,
 408 002a BCF17C0F 		cmp	ip, #124	@ tmp167,
 261:freemodbus-v1.5.0/modbus/functions/mbfuncholding.c **** 
 409              		.loc 1 261 0
 410 002e 237A     		ldrb	r3, [r4, #8]	@ zero_extendqisi2	@ D.5242, MEM[(UCHAR *)pucFrame_8(D) + 8B]
 411              	.LVL43:
 412              		.loc 1 265 0
 413 0030 31D8     		bhi	.L23	@,
 261:freemodbus-v1.5.0/modbus/functions/mbfuncholding.c **** 
 414              		.loc 1 261 0 discriminator 1
 415 0032 43EA0222 		orr	r2, r3, r2, lsl #8	@, usRegWriteCount, D.5242, D.5242,
 416              	.LVL44:
 417              		.loc 1 265 0 discriminator 1
 418 0036 531E     		subs	r3, r2, #1	@ tmp173, usRegWriteCount,
 419              	.LVL45:
 420 0038 782B     		cmp	r3, #120	@ tmp173,
 421 003a 2CD8     		bhi	.L23	@,
 266:freemodbus-v1.5.0/modbus/functions/mbfuncholding.c ****             ( usRegWriteCount >= 1 ) && ( usRegWriteCount <= 0x79 ) &&
 422              		.loc 1 266 0 discriminator 1
 423 003c BEEB420F 		cmp	lr, r2, lsl #1	@ ucRegWriteByteCount, usRegWriteCount,
 424 0040 29D1     		bne	.L23	@,
 257:freemodbus-v1.5.0/modbus/functions/mbfuncholding.c ****         usRegWriteAddress++;
 425              		.loc 1 257 0
 426 0042 41EA0021 		orr	r1, r1, r0, lsl #8	@, usRegWriteAddress, D.5242, D.5242,
 427              	.LVL46:
 258:freemodbus-v1.5.0/modbus/functions/mbfuncholding.c **** 
 428              		.loc 1 258 0
 429 0046 0131     		adds	r1, r1, #1	@ tmp180, usRegWriteAddress,
 267:freemodbus-v1.5.0/modbus/functions/mbfuncholding.c ****             ( ( 2 * usRegWriteCount ) == ucRegWriteByteCount ) )
 268:freemodbus-v1.5.0/modbus/functions/mbfuncholding.c ****         {
 269:freemodbus-v1.5.0/modbus/functions/mbfuncholding.c ****             /* Make callback to update the register values. */
 270:freemodbus-v1.5.0/modbus/functions/mbfuncholding.c ****             eRegStatus = eMBRegHoldingCB( &pucFrame[MB_PDU_FUNC_READWRITE_WRITE_VALUES_OFF],
 430              		.loc 1 270 0
 431 0048 0123     		movs	r3, #1	@,
 432 004a 04F10A00 		add	r0, r4, #10	@, pucFrame,
 433              	.LVL47:
 434 004e 89B2     		uxth	r1, r1	@, tmp180
 435 0050 FFF7FEFF 		bl	eMBRegHoldingCB	@
 436              	.LVL48:
 437 0054 0346     		mov	r3, r0	@ tmp182,
ARM GAS  C:\cygwin\tmp\ccYiVZGM.s 			page 14


 438              	.LVL49:
 271:freemodbus-v1.5.0/modbus/functions/mbfuncholding.c ****                                           usRegWriteAddress, usRegWriteCount, MB_REG_WRITE );
 272:freemodbus-v1.5.0/modbus/functions/mbfuncholding.c **** 
 273:freemodbus-v1.5.0/modbus/functions/mbfuncholding.c ****             if( eRegStatus == MB_ENOERR )
 439              		.loc 1 273 0
 440 0056 0BBB     		cbnz	r3, .L19	@ tmp182,
 441              	.LVL50:
 274:freemodbus-v1.5.0/modbus/functions/mbfuncholding.c ****             {
 275:freemodbus-v1.5.0/modbus/functions/mbfuncholding.c ****                 /* Set the current PDU data pointer to the beginning. */
 276:freemodbus-v1.5.0/modbus/functions/mbfuncholding.c ****                 pucFrameCur = &pucFrame[MB_PDU_FUNC_OFF];
 277:freemodbus-v1.5.0/modbus/functions/mbfuncholding.c ****                 *usLen = MB_PDU_FUNC_OFF;
 278:freemodbus-v1.5.0/modbus/functions/mbfuncholding.c **** 
 279:freemodbus-v1.5.0/modbus/functions/mbfuncholding.c ****                 /* First byte contains the function code. */
 280:freemodbus-v1.5.0/modbus/functions/mbfuncholding.c ****                 *pucFrameCur++ = MB_FUNC_READWRITE_MULTIPLE_REGISTERS;
 442              		.loc 1 280 0
 443 0058 1722     		movs	r2, #23	@ tmp185,
 277:freemodbus-v1.5.0/modbus/functions/mbfuncholding.c **** 
 444              		.loc 1 277 0
 445 005a 2B80     		strh	r3, [r5]	@ movhi	@ tmp182, *usLen_6(D)
 446              	.LVL51:
 447              		.loc 1 280 0
 448 005c 2270     		strb	r2, [r4]	@ tmp185, *pucFrame_8(D)
 281:freemodbus-v1.5.0/modbus/functions/mbfuncholding.c ****                 *usLen += 1;
 449              		.loc 1 281 0
 450 005e 2A88     		ldrh	r2, [r5]	@, *usLen_6(D)
 282:freemodbus-v1.5.0/modbus/functions/mbfuncholding.c **** 
 283:freemodbus-v1.5.0/modbus/functions/mbfuncholding.c ****                 /* Second byte in the response contain the number of bytes. */
 284:freemodbus-v1.5.0/modbus/functions/mbfuncholding.c ****                 *pucFrameCur++ = ( UCHAR ) ( usRegReadCount * 2 );
 451              		.loc 1 284 0
 452 0060 4FEA4609 		lsl	r9, r6, #1	@ tmp191, usRegReadCount,
 281:freemodbus-v1.5.0/modbus/functions/mbfuncholding.c ****                 *usLen += 1;
 453              		.loc 1 281 0
 454 0064 0132     		adds	r2, r2, #1	@ tmp188, *usLen_6(D),
 455 0066 2A80     		strh	r2, [r5]	@ movhi	@ tmp188, *usLen_6(D)
 456              	.LVL52:
 457              		.loc 1 284 0
 458 0068 84F80190 		strb	r9, [r4, #1]	@ tmp191, MEM[(UCHAR *)pucFrame_8(D) + 1B]
 285:freemodbus-v1.5.0/modbus/functions/mbfuncholding.c ****                 *usLen += 1;
 459              		.loc 1 285 0
 460 006c 2A88     		ldrh	r2, [r5]	@, *usLen_6(D)
 250:freemodbus-v1.5.0/modbus/functions/mbfuncholding.c ****         usRegReadAddress++;
 461              		.loc 1 250 0
 462 006e 47EA0821 		orr	r1, r7, r8, lsl #8	@, usRegReadAddress, D.5242, D.5242,
 463              		.loc 1 285 0
 464 0072 0132     		adds	r2, r2, #1	@ tmp194, *usLen_6(D),
 251:freemodbus-v1.5.0/modbus/functions/mbfuncholding.c **** 
 465              		.loc 1 251 0
 466 0074 0131     		adds	r1, r1, #1	@ tmp201, usRegReadAddress,
 467              		.loc 1 285 0
 468 0076 2A80     		strh	r2, [r5]	@ movhi	@ tmp194, *usLen_6(D)
 286:freemodbus-v1.5.0/modbus/functions/mbfuncholding.c **** 
 287:freemodbus-v1.5.0/modbus/functions/mbfuncholding.c ****                 /* Make the read callback. */
 288:freemodbus-v1.5.0/modbus/functions/mbfuncholding.c ****                 eRegStatus =
 469              		.loc 1 288 0
 470 0078 A01C     		adds	r0, r4, #2	@, pucFrame,
 471              	.LVL53:
 472 007a 89B2     		uxth	r1, r1	@, tmp201
ARM GAS  C:\cygwin\tmp\ccYiVZGM.s 			page 15


 473 007c 3246     		mov	r2, r6	@, usRegReadCount
 474 007e FFF7FEFF 		bl	eMBRegHoldingCB	@
 475              	.LVL54:
 289:freemodbus-v1.5.0/modbus/functions/mbfuncholding.c ****                     eMBRegHoldingCB( pucFrameCur, usRegReadAddress, usRegReadCount, MB_REG_READ );
 290:freemodbus-v1.5.0/modbus/functions/mbfuncholding.c ****                 if( eRegStatus == MB_ENOERR )
 476              		.loc 1 290 0
 477 0082 58B9     		cbnz	r0, .L19	@ eRegStatus,
 291:freemodbus-v1.5.0/modbus/functions/mbfuncholding.c ****                 {
 292:freemodbus-v1.5.0/modbus/functions/mbfuncholding.c ****                     *usLen += 2 * usRegReadCount;
 478              		.loc 1 292 0
 479 0084 2B88     		ldrh	r3, [r5]	@, *usLen_6(D)
 480 0086 9944     		add	r9, r9, r3	@ tmp207, *usLen_6(D)
 481 0088 A5F80090 		strh	r9, [r5]	@ movhi	@ tmp207, *usLen_6(D)
 482              	.LVL55:
 483 008c BDE8F883 		pop	{r3, r4, r5, r6, r7, r8, r9, pc}	@
 484              	.LVL56:
 485              	.L20:
 244:freemodbus-v1.5.0/modbus/functions/mbfuncholding.c ****     eMBErrorCode    eRegStatus;
 486              		.loc 1 244 0
 487 0090 0020     		movs	r0, #0	@ eStatus,
 488              	.LVL57:
 489 0092 BDE8F883 		pop	{r3, r4, r5, r6, r7, r8, r9, pc}	@
 490              	.LVL58:
 491              	.L23:
 293:freemodbus-v1.5.0/modbus/functions/mbfuncholding.c ****                 }
 294:freemodbus-v1.5.0/modbus/functions/mbfuncholding.c ****             }
 295:freemodbus-v1.5.0/modbus/functions/mbfuncholding.c ****             if( eRegStatus != MB_ENOERR )
 296:freemodbus-v1.5.0/modbus/functions/mbfuncholding.c ****             {
 297:freemodbus-v1.5.0/modbus/functions/mbfuncholding.c ****                 eStatus = prveMBError2Exception( eRegStatus );
 298:freemodbus-v1.5.0/modbus/functions/mbfuncholding.c ****             }
 299:freemodbus-v1.5.0/modbus/functions/mbfuncholding.c ****         }
 300:freemodbus-v1.5.0/modbus/functions/mbfuncholding.c ****         else
 301:freemodbus-v1.5.0/modbus/functions/mbfuncholding.c ****         {
 302:freemodbus-v1.5.0/modbus/functions/mbfuncholding.c ****             eStatus = MB_EX_ILLEGAL_DATA_VALUE;
 492              		.loc 1 302 0
 493 0096 0320     		movs	r0, #3	@ eStatus,
 494              	.LVL59:
 495 0098 BDE8F883 		pop	{r3, r4, r5, r6, r7, r8, r9, pc}	@
 496              	.LVL60:
 497              	.L19:
 303:freemodbus-v1.5.0/modbus/functions/mbfuncholding.c ****         }
 304:freemodbus-v1.5.0/modbus/functions/mbfuncholding.c ****     }
 305:freemodbus-v1.5.0/modbus/functions/mbfuncholding.c ****     return eStatus;
 306:freemodbus-v1.5.0/modbus/functions/mbfuncholding.c **** }
 498              		.loc 1 306 0
 499 009c BDE8F843 		pop	{r3, r4, r5, r6, r7, r8, r9, lr}	@
 500              		.cfi_restore 14
 501              		.cfi_restore 9
 502              		.cfi_restore 8
 503              		.cfi_restore 7
 504              		.cfi_restore 6
 505              		.cfi_restore 5
 506              		.cfi_restore 4
 507              		.cfi_restore 3
 508              		.cfi_def_cfa_offset 0
 509              	.LVL61:
 297:freemodbus-v1.5.0/modbus/functions/mbfuncholding.c ****             }
ARM GAS  C:\cygwin\tmp\ccYiVZGM.s 			page 16


 510              		.loc 1 297 0
 511 00a0 FFF7FEBF 		b	prveMBError2Exception	@
 512              	.LVL62:
 513              		.cfi_endproc
 514              	.LFE3:
 515              		.size	eMBFuncReadWriteMultipleHoldingRegister, .-eMBFuncReadWriteMultipleHoldingRegister
 516              		.text
 517              	.Letext0:
 518              		.file 2 "c:\\program files\\gcc-arm-none-eabi-4_9-2014\\arm-none-eabi\\include\\machine\\_default_
 519              		.file 3 "c:\\program files\\gcc-arm-none-eabi-4_9-2014\\arm-none-eabi\\include\\stdint.h"
 520              		.file 4 "freemodbus-v1.5.0/port/port.h"
 521              		.file 5 "freemodbus-v1.5.0/modbus/include/mbproto.h"
 522              		.file 6 "freemodbus-v1.5.0/modbus/include/mb.h"