ARM GAS  C:\cygwin\tmp\ccfI5oSB.s 			page 1


   1              		.syntax unified
   2              		.cpu cortex-m4
   3              		.fpu softvfp
   4              		.eabi_attribute 20, 1	@ Tag_ABI_FP_denormal
   5              		.eabi_attribute 21, 1	@ Tag_ABI_FP_exceptions
   6              		.eabi_attribute 23, 3	@ Tag_ABI_FP_number_model
   7              		.eabi_attribute 24, 1	@ Tag_ABI_align8_needed
   8              		.eabi_attribute 25, 1	@ Tag_ABI_align8_preserved
   9              		.eabi_attribute 26, 1	@ Tag_ABI_enum_size
  10              		.eabi_attribute 30, 4	@ Tag_ABI_optimization_goals
  11              		.eabi_attribute 34, 1	@ Tag_CPU_unaligned_access
  12              		.eabi_attribute 18, 4	@ Tag_ABI_PCS_wchar_t
  13              		.file	"mbutils.c"
  14              	@ GNU C (GNU Tools for ARM Embedded Processors) version 4.9.3 20141119 (release) [ARM/embedded-4_9-
  15              	@	compiled by GNU C version 4.7.4, GMP version 4.3.2, MPFR version 2.4.2, MPC version 0.8.1
  16              	@ GGC heuristics: --param ggc-min-expand=100 --param ggc-min-heapsize=131072
  17              	@ options passed:  -I . -I Inc -I gui -I emWin -I emWin/config
  18              	@ -I freemodbus-v1.5.0/port -I freemodbus-v1.5.0/modbus/include
  19              	@ -I freemodbus-v1.5.0/modbus/ascii -I freemodbus-v1.5.0/modbus/rtu
  20              	@ -I ../STM32Cube_FW_F4_V1.4.0/Drivers/CMSIS/Include
  21              	@ -I ../STM32Cube_FW_F4_V1.4.0/Drivers/CMSIS/Device/ST/STM32F4xx/Include
  22              	@ -I ../STM32Cube_FW_F4_V1.4.0/Drivers/STM32F4xx_HAL_Driver/Inc
  23              	@ -I ../STM32Cube_FW_F4_V1.4.0/Drivers/CMSIS/Include
  24              	@ -I ../STM32Cube_FW_F4_V1.4.0/Middlewares/ST/STemWin/inc
  25              	@ -I ../STM32Cube_FW_F4_V1.4.0/Middlewares/Third_Party/FatFs/src
  26              	@ -I ../STM32Cube_FW_F4_V1.4.0/Middlewares/Third_Party/FatFs/src/drivers/sd
  27              	@ -I ./drivers/display -imultilib armv7e-m
  28              	@ -iprefix c:\program files\gcc-arm-none-eabi-4_9-2014\bin\../lib/gcc/arm-none-eabi/4.9.3/
  29              	@ -isysroot c:\program files\gcc-arm-none-eabi-4_9-2014\bin\../arm-none-eabi
  30              	@ -MD out/mbutils.d -MF out/mbutils.d -MP -MQ out/mbutils.o
  31              	@ -D__USES_INITFINI__ -D USE_HAL_DRIVER -D STM32F4XX -D HSE_VALUE=25000000
  32              	@ -D STM32F437xx -D USE_FULL_ASSERT -D __GNUC__ -D __VFP_FP__
  33              	@ -D ARM_MATH_CM4 -D LOG_INFO freemodbus-v1.5.0/modbus/functions/mbutils.c
  34              	@ -mcpu=cortex-m4 -mthumb -auxbase-strip out/mbutils.o -g -ggdb3 -Os -Os
  35              	@ -Wall -Wstrict-prototypes -Wextra -std=gnu90 -ffunction-sections
  36              	@ -fdata-sections -fverbose-asm
  37              	@ options enabled:  -faggressive-loop-optimizations -fauto-inc-dec
  38              	@ -fbranch-count-reg -fcaller-saves -fcombine-stack-adjustments -fcommon
  39              	@ -fcompare-elim -fcprop-registers -fcrossjumping -fcse-follow-jumps
  40              	@ -fdata-sections -fdefer-pop -fdelete-null-pointer-checks -fdevirtualize
  41              	@ -fdevirtualize-speculatively -fdwarf2-cfi-asm -fearly-inlining
  42              	@ -feliminate-unused-debug-types -fexpensive-optimizations
  43              	@ -fforward-propagate -ffunction-cse -ffunction-sections -fgcse -fgcse-lm
  44              	@ -fgnu-runtime -fgnu-unique -fguess-branch-probability
  45              	@ -fhoist-adjacent-loads -fident -fif-conversion -fif-conversion2
  46              	@ -findirect-inlining -finline -finline-atomics -finline-functions
  47              	@ -finline-functions-called-once -finline-small-functions -fipa-cp
  48              	@ -fipa-profile -fipa-pure-const -fipa-reference -fipa-sra
  49              	@ -fira-hoist-pressure -fira-share-save-slots -fira-share-spill-slots
  50              	@ -fisolate-erroneous-paths-dereference -fivopts -fkeep-static-consts
  51              	@ -fleading-underscore -fmath-errno -fmerge-constants -fmerge-debug-strings
  52              	@ -fomit-frame-pointer -foptimize-sibling-calls -fpartial-inlining
  53              	@ -fpeephole -fpeephole2 -fprefetch-loop-arrays -freg-struct-return
  54              	@ -freorder-blocks -freorder-functions -frerun-cse-after-loop
  55              	@ -fsched-critical-path-heuristic -fsched-dep-count-heuristic
  56              	@ -fsched-group-heuristic -fsched-interblock -fsched-last-insn-heuristic
  57              	@ -fsched-pressure -fsched-rank-heuristic -fsched-spec
ARM GAS  C:\cygwin\tmp\ccfI5oSB.s 			page 2


  58              	@ -fsched-spec-insn-heuristic -fsched-stalled-insns-dep -fschedule-insns2
  59              	@ -fsection-anchors -fshow-column -fsigned-zeros -fsplit-ivs-in-unroller
  60              	@ -fsplit-wide-types -fstrict-aliasing -fstrict-overflow
  61              	@ -fstrict-volatile-bitfields -fsync-libcalls -fthread-jumps
  62              	@ -ftoplevel-reorder -ftrapping-math -ftree-bit-ccp -ftree-builtin-call-dce
  63              	@ -ftree-ccp -ftree-ch -ftree-coalesce-vars -ftree-copy-prop
  64              	@ -ftree-copyrename -ftree-cselim -ftree-dce -ftree-dominator-opts
  65              	@ -ftree-dse -ftree-forwprop -ftree-fre -ftree-loop-if-convert
  66              	@ -ftree-loop-im -ftree-loop-ivcanon -ftree-loop-optimize
  67              	@ -ftree-parallelize-loops= -ftree-phiprop -ftree-pre -ftree-pta
  68              	@ -ftree-reassoc -ftree-scev-cprop -ftree-sink -ftree-slsr -ftree-sra
  69              	@ -ftree-switch-conversion -ftree-tail-merge -ftree-ter -ftree-vrp
  70              	@ -funit-at-a-time -fvar-tracking -fvar-tracking-assignments -fverbose-asm
  71              	@ -fzero-initialized-in-bss -mlittle-endian -mlra
  72              	@ -mpic-data-is-text-relative -msched-prolog -mthumb -munaligned-access
  73              	@ -mvectorize-with-neon-quad
  74              	
  75              		.text
  76              	.Ltext0:
  77              		.cfi_sections	.debug_frame
  78              		.section	.text.xMBUtilSetBits,"ax",%progbits
  79              		.align	1
  80              		.global	xMBUtilSetBits
  81              		.thumb
  82              		.thumb_func
  83              		.type	xMBUtilSetBits, %function
  84              	xMBUtilSetBits:
  85              	.LFB0:
  86              		.file 1 "freemodbus-v1.5.0/modbus/functions/mbutils.c"
   1:freemodbus-v1.5.0/modbus/functions/mbutils.c **** /* 
   2:freemodbus-v1.5.0/modbus/functions/mbutils.c ****  * FreeModbus Libary: A portable Modbus implementation for Modbus ASCII/RTU.
   3:freemodbus-v1.5.0/modbus/functions/mbutils.c ****  * Copyright (c) 2006 Christian Walter <wolti@sil.at>
   4:freemodbus-v1.5.0/modbus/functions/mbutils.c ****  * All rights reserved.
   5:freemodbus-v1.5.0/modbus/functions/mbutils.c ****  *
   6:freemodbus-v1.5.0/modbus/functions/mbutils.c ****  * Redistribution and use in source and binary forms, with or without
   7:freemodbus-v1.5.0/modbus/functions/mbutils.c ****  * modification, are permitted provided that the following conditions
   8:freemodbus-v1.5.0/modbus/functions/mbutils.c ****  * are met:
   9:freemodbus-v1.5.0/modbus/functions/mbutils.c ****  * 1. Redistributions of source code must retain the above copyright
  10:freemodbus-v1.5.0/modbus/functions/mbutils.c ****  *    notice, this list of conditions and the following disclaimer.
  11:freemodbus-v1.5.0/modbus/functions/mbutils.c ****  * 2. Redistributions in binary form must reproduce the above copyright
  12:freemodbus-v1.5.0/modbus/functions/mbutils.c ****  *    notice, this list of conditions and the following disclaimer in the
  13:freemodbus-v1.5.0/modbus/functions/mbutils.c ****  *    documentation and/or other materials provided with the distribution.
  14:freemodbus-v1.5.0/modbus/functions/mbutils.c ****  * 3. The name of the author may not be used to endorse or promote products
  15:freemodbus-v1.5.0/modbus/functions/mbutils.c ****  *    derived from this software without specific prior written permission.
  16:freemodbus-v1.5.0/modbus/functions/mbutils.c ****  *
  17:freemodbus-v1.5.0/modbus/functions/mbutils.c ****  * THIS SOFTWARE IS PROVIDED BY THE AUTHOR ``AS IS'' AND ANY EXPRESS OR
  18:freemodbus-v1.5.0/modbus/functions/mbutils.c ****  * IMPLIED WARRANTIES, INCLUDING, BUT NOT LIMITED TO, THE IMPLIED WARRANTIES
  19:freemodbus-v1.5.0/modbus/functions/mbutils.c ****  * OF MERCHANTABILITY AND FITNESS FOR A PARTICULAR PURPOSE ARE DISCLAIMED.
  20:freemodbus-v1.5.0/modbus/functions/mbutils.c ****  * IN NO EVENT SHALL THE AUTHOR BE LIABLE FOR ANY DIRECT, INDIRECT,
  21:freemodbus-v1.5.0/modbus/functions/mbutils.c ****  * INCIDENTAL, SPECIAL, EXEMPLARY, OR CONSEQUENTIAL DAMAGES (INCLUDING, BUT
  22:freemodbus-v1.5.0/modbus/functions/mbutils.c ****  * NOT LIMITED TO, PROCUREMENT OF SUBSTITUTE GOODS OR SERVICES; LOSS OF USE,
  23:freemodbus-v1.5.0/modbus/functions/mbutils.c ****  * DATA, OR PROFITS; OR BUSINESS INTERRUPTION) HOWEVER CAUSED AND ON ANY
  24:freemodbus-v1.5.0/modbus/functions/mbutils.c ****  * THEORY OF LIABILITY, WHETHER IN CONTRACT, STRICT LIABILITY, OR TORT
  25:freemodbus-v1.5.0/modbus/functions/mbutils.c ****  * (INCLUDING NEGLIGENCE OR OTHERWISE) ARISING IN ANY WAY OUT OF THE USE OF
  26:freemodbus-v1.5.0/modbus/functions/mbutils.c ****  * THIS SOFTWARE, EVEN IF ADVISED OF THE POSSIBILITY OF SUCH DAMAGE.
  27:freemodbus-v1.5.0/modbus/functions/mbutils.c ****  *
  28:freemodbus-v1.5.0/modbus/functions/mbutils.c ****  * File: $Id: mbutils.c,v 1.6 2007/02/18 23:49:07 wolti Exp $
ARM GAS  C:\cygwin\tmp\ccfI5oSB.s 			page 3


  29:freemodbus-v1.5.0/modbus/functions/mbutils.c ****  */
  30:freemodbus-v1.5.0/modbus/functions/mbutils.c **** 
  31:freemodbus-v1.5.0/modbus/functions/mbutils.c **** /* ----------------------- System includes ----------------------------------*/
  32:freemodbus-v1.5.0/modbus/functions/mbutils.c **** #include "stdlib.h"
  33:freemodbus-v1.5.0/modbus/functions/mbutils.c **** #include "string.h"
  34:freemodbus-v1.5.0/modbus/functions/mbutils.c **** 
  35:freemodbus-v1.5.0/modbus/functions/mbutils.c **** /* ----------------------- Platform includes --------------------------------*/
  36:freemodbus-v1.5.0/modbus/functions/mbutils.c **** #include "port.h"
  37:freemodbus-v1.5.0/modbus/functions/mbutils.c **** 
  38:freemodbus-v1.5.0/modbus/functions/mbutils.c **** /* ----------------------- Modbus includes ----------------------------------*/
  39:freemodbus-v1.5.0/modbus/functions/mbutils.c **** #include "mb.h"
  40:freemodbus-v1.5.0/modbus/functions/mbutils.c **** #include "mbproto.h"
  41:freemodbus-v1.5.0/modbus/functions/mbutils.c **** 
  42:freemodbus-v1.5.0/modbus/functions/mbutils.c **** /* ----------------------- Defines ------------------------------------------*/
  43:freemodbus-v1.5.0/modbus/functions/mbutils.c **** #define BITS_UCHAR      8U
  44:freemodbus-v1.5.0/modbus/functions/mbutils.c **** 
  45:freemodbus-v1.5.0/modbus/functions/mbutils.c **** /* ----------------------- Start implementation -----------------------------*/
  46:freemodbus-v1.5.0/modbus/functions/mbutils.c **** void
  47:freemodbus-v1.5.0/modbus/functions/mbutils.c **** xMBUtilSetBits( UCHAR * ucByteBuf, USHORT usBitOffset, UCHAR ucNBits,
  48:freemodbus-v1.5.0/modbus/functions/mbutils.c ****                 UCHAR ucValue )
  49:freemodbus-v1.5.0/modbus/functions/mbutils.c **** {
  87              		.loc 1 49 0
  88              		.cfi_startproc
  89              		@ args = 0, pretend = 0, frame = 0
  90              		@ frame_needed = 0, uses_anonymous_args = 0
  91              	.LVL0:
  50:freemodbus-v1.5.0/modbus/functions/mbutils.c ****     USHORT          usWordBuf;
  51:freemodbus-v1.5.0/modbus/functions/mbutils.c ****     USHORT          usMask;
  52:freemodbus-v1.5.0/modbus/functions/mbutils.c ****     USHORT          usByteOffset;
  53:freemodbus-v1.5.0/modbus/functions/mbutils.c ****     USHORT          usNPreBits;
  54:freemodbus-v1.5.0/modbus/functions/mbutils.c ****     USHORT          usValue = ucValue;
  55:freemodbus-v1.5.0/modbus/functions/mbutils.c **** 
  56:freemodbus-v1.5.0/modbus/functions/mbutils.c ****     assert( ucNBits <= 8 );
  92              		.loc 1 56 0
  93 0000 082A     		cmp	r2, #8	@ ucNBits,
  49:freemodbus-v1.5.0/modbus/functions/mbutils.c ****     USHORT          usWordBuf;
  94              		.loc 1 49 0
  95 0002 F8B5     		push	{r3, r4, r5, r6, r7, lr}	@
  96              		.cfi_def_cfa_offset 24
  97              		.cfi_offset 3, -24
  98              		.cfi_offset 4, -20
  99              		.cfi_offset 5, -16
 100              		.cfi_offset 6, -12
 101              		.cfi_offset 7, -8
 102              		.cfi_offset 14, -4
  49:freemodbus-v1.5.0/modbus/functions/mbutils.c ****     USHORT          usWordBuf;
 103              		.loc 1 49 0
 104 0004 1646     		mov	r6, r2	@ ucNBits, ucNBits
 105              		.loc 1 56 0
 106 0006 05D9     		bls	.L2	@,
 107              		.loc 1 56 0 is_stmt 0 discriminator 1
 108 0008 0E48     		ldr	r0, .L4	@,
 109              	.LVL1:
 110 000a 0F4B     		ldr	r3, .L4+4	@,
 111              	.LVL2:
 112 000c 3821     		movs	r1, #56	@,
 113              	.LVL3:
ARM GAS  C:\cygwin\tmp\ccfI5oSB.s 			page 4


 114 000e 0022     		movs	r2, #0	@,
 115              	.LVL4:
 116 0010 FFF7FEFF 		bl	__assert_func	@
 117              	.LVL5:
 118              	.L2:
  57:freemodbus-v1.5.0/modbus/functions/mbutils.c ****     assert( ( size_t )BITS_UCHAR == sizeof( UCHAR ) * 8 );
  58:freemodbus-v1.5.0/modbus/functions/mbutils.c **** 
  59:freemodbus-v1.5.0/modbus/functions/mbutils.c ****     /* Calculate byte offset for first byte containing the bit values starting
  60:freemodbus-v1.5.0/modbus/functions/mbutils.c ****      * at usBitOffset. */
  61:freemodbus-v1.5.0/modbus/functions/mbutils.c ****     usByteOffset = ( USHORT )( ( usBitOffset ) / BITS_UCHAR );
 119              		.loc 1 61 0 is_stmt 1
 120 0014 CD08     		lsrs	r5, r1, #3	@ usByteOffset, usBitOffset,
 121              	.LVL6:
  62:freemodbus-v1.5.0/modbus/functions/mbutils.c **** 
  63:freemodbus-v1.5.0/modbus/functions/mbutils.c ****     /* How many bits precede our bits to set. */
  64:freemodbus-v1.5.0/modbus/functions/mbutils.c ****     usNPreBits = ( USHORT )( usBitOffset - usByteOffset * BITS_UCHAR );
  65:freemodbus-v1.5.0/modbus/functions/mbutils.c **** 
  66:freemodbus-v1.5.0/modbus/functions/mbutils.c ****     /* Move bit field into position over bits to set */
  67:freemodbus-v1.5.0/modbus/functions/mbutils.c ****     usValue <<= usNPreBits;
  68:freemodbus-v1.5.0/modbus/functions/mbutils.c **** 
  69:freemodbus-v1.5.0/modbus/functions/mbutils.c ****     /* Prepare a mask for setting the new bits. */
  70:freemodbus-v1.5.0/modbus/functions/mbutils.c ****     usMask = ( USHORT )( ( 1 << ( USHORT ) ucNBits ) - 1 );
  71:freemodbus-v1.5.0/modbus/functions/mbutils.c ****     usMask <<= usBitOffset - usByteOffset * BITS_UCHAR;
  72:freemodbus-v1.5.0/modbus/functions/mbutils.c **** 
  73:freemodbus-v1.5.0/modbus/functions/mbutils.c ****     /* copy bits into temporary storage. */
  74:freemodbus-v1.5.0/modbus/functions/mbutils.c ****     usWordBuf = ucByteBuf[usByteOffset];
  75:freemodbus-v1.5.0/modbus/functions/mbutils.c ****     usWordBuf |= ucByteBuf[usByteOffset + 1] << BITS_UCHAR;
 122              		.loc 1 75 0
 123 0016 6C1C     		adds	r4, r5, #1	@ D.5137, usByteOffset,
 124              	.LVL7:
  70:freemodbus-v1.5.0/modbus/functions/mbutils.c ****     usMask <<= usBitOffset - usByteOffset * BITS_UCHAR;
 125              		.loc 1 70 0
 126 0018 0122     		movs	r2, #1	@ tmp155,
 127              	.LVL8:
 128 001a B240     		lsls	r2, r2, r6	@ D.5132, tmp155, ucNBits
 129              		.loc 1 75 0
 130 001c 075D     		ldrb	r7, [r0, r4]	@ zero_extendqisi2	@ D.5132, *_27
 131 001e 465D     		ldrb	r6, [r0, r5]	@ zero_extendqisi2	@ *_22, *_22
 132              	.LVL9:
  70:freemodbus-v1.5.0/modbus/functions/mbutils.c ****     usMask <<= usBitOffset - usByteOffset * BITS_UCHAR;
 133              		.loc 1 70 0
 134 0020 013A     		subs	r2, r2, #1	@ tmp157, D.5132,
  71:freemodbus-v1.5.0/modbus/functions/mbutils.c **** 
 135              		.loc 1 71 0
 136 0022 A1EBC501 		sub	r1, r1, r5, lsl #3	@ D.5133, usBitOffset, usByteOffset,
 137              	.LVL10:
 138 0026 92B2     		uxth	r2, r2	@ D.5132, tmp157
 139 0028 8A40     		lsls	r2, r2, r1	@ D.5132, D.5132, D.5133
 140              		.loc 1 75 0
 141 002a 46EA0726 		orr	r6, r6, r7, lsl #8	@, tmp169, *_22, D.5132,
  67:freemodbus-v1.5.0/modbus/functions/mbutils.c **** 
 142              		.loc 1 67 0
 143 002e 89B2     		uxth	r1, r1	@ D.5132, D.5133
  76:freemodbus-v1.5.0/modbus/functions/mbutils.c **** 
  77:freemodbus-v1.5.0/modbus/functions/mbutils.c ****     /* Zero out bit field bits and then or value bits into them. */
  78:freemodbus-v1.5.0/modbus/functions/mbutils.c ****     usWordBuf = ( USHORT )( ( usWordBuf & ( ~usMask ) ) | usValue );
 144              		.loc 1 78 0
ARM GAS  C:\cygwin\tmp\ccfI5oSB.s 			page 5


 145 0030 26EA0202 		bic	r2, r6, r2	@ tmp172, tmp169, D.5132
  67:freemodbus-v1.5.0/modbus/functions/mbutils.c **** 
 146              		.loc 1 67 0
 147 0034 8B40     		lsls	r3, r3, r1	@ D.5132, ucValue, D.5132
 148              	.LVL11:
 149              		.loc 1 78 0
 150 0036 1343     		orrs	r3, r3, r2	@, tmp180, D.5132, tmp172
 151 0038 9BB2     		uxth	r3, r3	@ D.5136, tmp180
 152              	.LVL12:
  79:freemodbus-v1.5.0/modbus/functions/mbutils.c **** 
  80:freemodbus-v1.5.0/modbus/functions/mbutils.c ****     /* move bits back into storage */
  81:freemodbus-v1.5.0/modbus/functions/mbutils.c ****     ucByteBuf[usByteOffset] = ( UCHAR )( usWordBuf & 0xFF );
 153              		.loc 1 81 0
 154 003a 4355     		strb	r3, [r0, r5]	@ D.5136, *_22
  82:freemodbus-v1.5.0/modbus/functions/mbutils.c ****     ucByteBuf[usByteOffset + 1] = ( UCHAR )( usWordBuf >> BITS_UCHAR );
 155              		.loc 1 82 0
 156 003c 1B0A     		lsrs	r3, r3, #8	@ tmp183, D.5136,
 157              	.LVL13:
 158 003e 0355     		strb	r3, [r0, r4]	@ tmp183, *_27
 159 0040 F8BD     		pop	{r3, r4, r5, r6, r7, pc}	@
 160              	.LVL14:
 161              	.L5:
 162 0042 00BF     		.align	2
 163              	.L4:
 164 0044 00000000 		.word	.LC0
 165 0048 2D000000 		.word	.LC1
 166              		.cfi_endproc
 167              	.LFE0:
 168              		.size	xMBUtilSetBits, .-xMBUtilSetBits
 169              		.section	.text.xMBUtilGetBits,"ax",%progbits
 170              		.align	1
 171              		.global	xMBUtilGetBits
 172              		.thumb
 173              		.thumb_func
 174              		.type	xMBUtilGetBits, %function
 175              	xMBUtilGetBits:
 176              	.LFB1:
  83:freemodbus-v1.5.0/modbus/functions/mbutils.c **** }
  84:freemodbus-v1.5.0/modbus/functions/mbutils.c **** 
  85:freemodbus-v1.5.0/modbus/functions/mbutils.c **** UCHAR
  86:freemodbus-v1.5.0/modbus/functions/mbutils.c **** xMBUtilGetBits( UCHAR * ucByteBuf, USHORT usBitOffset, UCHAR ucNBits )
  87:freemodbus-v1.5.0/modbus/functions/mbutils.c **** {
 177              		.loc 1 87 0
 178              		.cfi_startproc
 179              		@ args = 0, pretend = 0, frame = 0
 180              		@ frame_needed = 0, uses_anonymous_args = 0
 181              	.LVL15:
 182 0000 30B5     		push	{r4, r5, lr}	@
 183              		.cfi_def_cfa_offset 12
 184              		.cfi_offset 4, -12
 185              		.cfi_offset 5, -8
 186              		.cfi_offset 14, -4
  88:freemodbus-v1.5.0/modbus/functions/mbutils.c ****     USHORT          usWordBuf;
  89:freemodbus-v1.5.0/modbus/functions/mbutils.c ****     USHORT          usMask;
  90:freemodbus-v1.5.0/modbus/functions/mbutils.c ****     USHORT          usByteOffset;
  91:freemodbus-v1.5.0/modbus/functions/mbutils.c ****     USHORT          usNPreBits;
  92:freemodbus-v1.5.0/modbus/functions/mbutils.c **** 
ARM GAS  C:\cygwin\tmp\ccfI5oSB.s 			page 6


  93:freemodbus-v1.5.0/modbus/functions/mbutils.c ****     /* Calculate byte offset for first byte containing the bit values starting
  94:freemodbus-v1.5.0/modbus/functions/mbutils.c ****      * at usBitOffset. */
  95:freemodbus-v1.5.0/modbus/functions/mbutils.c ****     usByteOffset = ( USHORT )( ( usBitOffset ) / BITS_UCHAR );
 187              		.loc 1 95 0
 188 0002 CC08     		lsrs	r4, r1, #3	@ usByteOffset, usBitOffset,
 189              	.LVL16:
  96:freemodbus-v1.5.0/modbus/functions/mbutils.c **** 
  97:freemodbus-v1.5.0/modbus/functions/mbutils.c ****     /* How many bits precede our bits to set. */
  98:freemodbus-v1.5.0/modbus/functions/mbutils.c ****     usNPreBits = ( USHORT )( usBitOffset - usByteOffset * BITS_UCHAR );
  99:freemodbus-v1.5.0/modbus/functions/mbutils.c **** 
 100:freemodbus-v1.5.0/modbus/functions/mbutils.c ****     /* Prepare a mask for setting the new bits. */
 101:freemodbus-v1.5.0/modbus/functions/mbutils.c ****     usMask = ( USHORT )( ( 1 << ( USHORT ) ucNBits ) - 1 );
 102:freemodbus-v1.5.0/modbus/functions/mbutils.c **** 
 103:freemodbus-v1.5.0/modbus/functions/mbutils.c ****     /* copy bits into temporary storage. */
 104:freemodbus-v1.5.0/modbus/functions/mbutils.c ****     usWordBuf = ucByteBuf[usByteOffset];
 105:freemodbus-v1.5.0/modbus/functions/mbutils.c ****     usWordBuf |= ucByteBuf[usByteOffset + 1] << BITS_UCHAR;
 190              		.loc 1 105 0
 191 0004 0319     		adds	r3, r0, r4	@ tmp140, ucByteBuf, usByteOffset
 192              	.LVL17:
  98:freemodbus-v1.5.0/modbus/functions/mbutils.c **** 
 193              		.loc 1 98 0
 194 0006 A1EBC401 		sub	r1, r1, r4, lsl #3	@ tmp150, usBitOffset, usByteOffset,
 195              	.LVL18:
 196              		.loc 1 105 0
 197 000a 5D78     		ldrb	r5, [r3, #1]	@ zero_extendqisi2	@ D.5143, *_17
 198 000c 035D     		ldrb	r3, [r0, r4]	@ zero_extendqisi2	@ *_12, *_12
 199              	.LVL19:
 106:freemodbus-v1.5.0/modbus/functions/mbutils.c **** 
 107:freemodbus-v1.5.0/modbus/functions/mbutils.c ****     /* throw away unneeded bits. */
 108:freemodbus-v1.5.0/modbus/functions/mbutils.c ****     usWordBuf >>= usNPreBits;
 200              		.loc 1 108 0
 201 000e 43EA0520 		orr	r0, r3, r5, lsl #8	@, D.5143, *_12, D.5143,
 202              	.LVL20:
 101:freemodbus-v1.5.0/modbus/functions/mbutils.c **** 
 203              		.loc 1 101 0
 204 0012 0123     		movs	r3, #1	@ tmp154,
 205              	.LVL21:
 206              		.loc 1 108 0
 207 0014 89B2     		uxth	r1, r1	@ D.5143, tmp150
 101:freemodbus-v1.5.0/modbus/functions/mbutils.c **** 
 208              		.loc 1 101 0
 209 0016 9340     		lsls	r3, r3, r2	@ D.5143, tmp154, ucNBits
 210              		.loc 1 108 0
 211 0018 0841     		asrs	r0, r0, r1	@ D.5143, D.5143, D.5143
 212              	.LVL22:
 101:freemodbus-v1.5.0/modbus/functions/mbutils.c **** 
 213              		.loc 1 101 0
 214 001a 013B     		subs	r3, r3, #1	@ tmp156, D.5143,
 109:freemodbus-v1.5.0/modbus/functions/mbutils.c **** 
 110:freemodbus-v1.5.0/modbus/functions/mbutils.c ****     /* mask away bits above the requested bitfield. */
 111:freemodbus-v1.5.0/modbus/functions/mbutils.c ****     usWordBuf &= usMask;
 215              		.loc 1 111 0
 216 001c 1840     		ands	r0, r0, r3	@, tmp158, D.5143, tmp156
 217              	.LVL23:
 112:freemodbus-v1.5.0/modbus/functions/mbutils.c **** 
 113:freemodbus-v1.5.0/modbus/functions/mbutils.c ****     return ( UCHAR ) usWordBuf;
 114:freemodbus-v1.5.0/modbus/functions/mbutils.c **** }
ARM GAS  C:\cygwin\tmp\ccfI5oSB.s 			page 7


 218              		.loc 1 114 0
 219 001e C0B2     		uxtb	r0, r0	@, tmp158
 220 0020 30BD     		pop	{r4, r5, pc}	@
 221              		.cfi_endproc
 222              	.LFE1:
 223              		.size	xMBUtilGetBits, .-xMBUtilGetBits
 224              		.section	.text.prveMBError2Exception,"ax",%progbits
 225              		.align	1
 226              		.global	prveMBError2Exception
 227              		.thumb
 228              		.thumb_func
 229              		.type	prveMBError2Exception, %function
 230              	prveMBError2Exception:
 231              	.LFB2:
 115:freemodbus-v1.5.0/modbus/functions/mbutils.c **** 
 116:freemodbus-v1.5.0/modbus/functions/mbutils.c **** eMBException
 117:freemodbus-v1.5.0/modbus/functions/mbutils.c **** prveMBError2Exception( eMBErrorCode eErrorCode )
 118:freemodbus-v1.5.0/modbus/functions/mbutils.c **** {
 232              		.loc 1 118 0
 233              		.cfi_startproc
 234              		@ args = 0, pretend = 0, frame = 0
 235              		@ frame_needed = 0, uses_anonymous_args = 0
 236              		@ link register save eliminated.
 237              	.LVL24:
 238 0000 0728     		cmp	r0, #7	@ eErrorCode,
 239 0002 9ABF     		itte	ls
 240 0004 014B     		ldrls	r3, .L10	@ tmp113,
 241 0006 185C     		ldrbls	r0, [r3, r0]	@ zero_extendqisi2	@ eStatus, CSWTCH.7
 242              	.LVL25:
 243              		.loc 1 118 0
 244 0008 0420     		movhi	r0, #4	@ eStatus,
 245              	.LVL26:
 119:freemodbus-v1.5.0/modbus/functions/mbutils.c ****     eMBException    eStatus;
 120:freemodbus-v1.5.0/modbus/functions/mbutils.c **** 
 121:freemodbus-v1.5.0/modbus/functions/mbutils.c ****     switch ( eErrorCode )
 122:freemodbus-v1.5.0/modbus/functions/mbutils.c ****     {
 123:freemodbus-v1.5.0/modbus/functions/mbutils.c ****         case MB_ENOERR:
 124:freemodbus-v1.5.0/modbus/functions/mbutils.c ****             eStatus = MB_EX_NONE;
 125:freemodbus-v1.5.0/modbus/functions/mbutils.c ****             break;
 126:freemodbus-v1.5.0/modbus/functions/mbutils.c **** 
 127:freemodbus-v1.5.0/modbus/functions/mbutils.c ****         case MB_ENOREG:
 128:freemodbus-v1.5.0/modbus/functions/mbutils.c ****             eStatus = MB_EX_ILLEGAL_DATA_ADDRESS;
 129:freemodbus-v1.5.0/modbus/functions/mbutils.c ****             break;
 130:freemodbus-v1.5.0/modbus/functions/mbutils.c **** 
 131:freemodbus-v1.5.0/modbus/functions/mbutils.c ****         case MB_ETIMEDOUT:
 132:freemodbus-v1.5.0/modbus/functions/mbutils.c ****             eStatus = MB_EX_SLAVE_BUSY;
 133:freemodbus-v1.5.0/modbus/functions/mbutils.c ****             break;
 134:freemodbus-v1.5.0/modbus/functions/mbutils.c **** 
 135:freemodbus-v1.5.0/modbus/functions/mbutils.c ****         default:
 136:freemodbus-v1.5.0/modbus/functions/mbutils.c ****             eStatus = MB_EX_SLAVE_DEVICE_FAILURE;
 137:freemodbus-v1.5.0/modbus/functions/mbutils.c ****             break;
 138:freemodbus-v1.5.0/modbus/functions/mbutils.c ****     }
 139:freemodbus-v1.5.0/modbus/functions/mbutils.c **** 
 140:freemodbus-v1.5.0/modbus/functions/mbutils.c ****     return eStatus;
 141:freemodbus-v1.5.0/modbus/functions/mbutils.c **** }
 246              		.loc 1 141 0
 247 000a 7047     		bx	lr	@
ARM GAS  C:\cygwin\tmp\ccfI5oSB.s 			page 8


 248              	.L11:
 249              		.align	2
 250              	.L10:
 251 000c 00000000 		.word	.LANCHOR0
 252              		.cfi_endproc
 253              	.LFE2:
 254              		.size	prveMBError2Exception, .-prveMBError2Exception
 255              		.section	.rodata.CSWTCH.7,"a",%progbits
 256              		.set	.LANCHOR0,. + 0
 257              		.type	CSWTCH.7, %object
 258              		.size	CSWTCH.7, 8
 259              	CSWTCH.7:
 260 0000 00       		.byte	0
 261 0001 02       		.byte	2
 262 0002 04       		.byte	4
 263 0003 04       		.byte	4
 264 0004 04       		.byte	4
 265 0005 04       		.byte	4
 266 0006 04       		.byte	4
 267 0007 06       		.byte	6
 268              		.section	.rodata.str1.1,"aMS",%progbits,1
 269              	.LC0:
 270 0000 66726565 		.ascii	"freemodbus-v1.5.0/modbus/functions/mbutils.c\000"
 270      6D6F6462 
 270      75732D76 
 270      312E352E 
 270      302F6D6F 
 271              	.LC1:
 272 002d 75634E42 		.ascii	"ucNBits <= 8\000"
 272      69747320 
 272      3C3D2038 
 272      00
 273              		.text
 274              	.Letext0:
 275              		.file 2 "c:\\program files\\gcc-arm-none-eabi-4_9-2014\\lib\\gcc\\arm-none-eabi\\4.9.3\\include\\s
 276              		.file 3 "c:\\program files\\gcc-arm-none-eabi-4_9-2014\\arm-none-eabi\\include\\machine\\_default_
 277              		.file 4 "c:\\program files\\gcc-arm-none-eabi-4_9-2014\\arm-none-eabi\\include\\stdint.h"
 278              		.file 5 "freemodbus-v1.5.0/port/port.h"
 279              		.file 6 "freemodbus-v1.5.0/modbus/include/mbproto.h"
 280              		.file 7 "freemodbus-v1.5.0/modbus/include/mb.h"
 281              		.file 8 "c:\\program files\\gcc-arm-none-eabi-4_9-2014\\arm-none-eabi\\include\\assert.h"