ARM GAS  C:\cygwin\tmp\ccR8DGvd.s 			page 1


   1              		.syntax unified
   2              		.cpu cortex-m4
   3              		.fpu softvfp
   4              		.eabi_attribute 20, 1	@ Tag_ABI_FP_denormal
   5              		.eabi_attribute 21, 1	@ Tag_ABI_FP_exceptions
   6              		.eabi_attribute 23, 3	@ Tag_ABI_FP_number_model
   7              		.eabi_attribute 24, 1	@ Tag_ABI_align8_needed
   8              		.eabi_attribute 25, 1	@ Tag_ABI_align8_preserved
   9              		.eabi_attribute 26, 1	@ Tag_ABI_enum_size
  10              		.eabi_attribute 30, 4	@ Tag_ABI_optimization_goals
  11              		.eabi_attribute 34, 1	@ Tag_CPU_unaligned_access
  12              		.eabi_attribute 18, 4	@ Tag_ABI_PCS_wchar_t
  13              		.file	"stm32f4xx_hal_i2c_ex.c"
  14              	@ GNU C (GNU Tools for ARM Embedded Processors) version 4.9.3 20141119 (release) [ARM/embedded-4_9-
  15              	@	compiled by GNU C version 4.7.4, GMP version 4.3.2, MPFR version 2.4.2, MPC version 0.8.1
  16              	@ GGC heuristics: --param ggc-min-expand=100 --param ggc-min-heapsize=131072
  17              	@ options passed:  -I . -I Inc -I gui -I emWin -I emWin/config
  18              	@ -I freemodbus-v1.5.0/port -I freemodbus-v1.5.0/modbus/include
  19              	@ -I freemodbus-v1.5.0/modbus/ascii -I freemodbus-v1.5.0/modbus/rtu
  20              	@ -I ../STM32Cube_FW_F4_V1.4.0/Drivers/CMSIS/Include
  21              	@ -I ../STM32Cube_FW_F4_V1.4.0/Drivers/CMSIS/Device/ST/STM32F4xx/Include
  22              	@ -I ../STM32Cube_FW_F4_V1.4.0/Drivers/STM32F4xx_HAL_Driver/Inc
  23              	@ -I ../STM32Cube_FW_F4_V1.4.0/Drivers/CMSIS/Include
  24              	@ -I ../STM32Cube_FW_F4_V1.4.0/Middlewares/ST/STemWin/inc
  25              	@ -I ../STM32Cube_FW_F4_V1.4.0/Middlewares/Third_Party/FatFs/src
  26              	@ -I ../STM32Cube_FW_F4_V1.4.0/Middlewares/Third_Party/FatFs/src/drivers/sd
  27              	@ -I ./drivers/display -imultilib armv7e-m
  28              	@ -iprefix c:\program files\gcc-arm-none-eabi-4_9-2014\bin\../lib/gcc/arm-none-eabi/4.9.3/
  29              	@ -isysroot c:\program files\gcc-arm-none-eabi-4_9-2014\bin\../arm-none-eabi
  30              	@ -MD out/stm32f4xx_hal_i2c_ex.d -MF out/stm32f4xx_hal_i2c_ex.d -MP
  31              	@ -MQ out/stm32f4xx_hal_i2c_ex.o -D__USES_INITFINI__ -D USE_HAL_DRIVER
  32              	@ -D STM32F4XX -D HSE_VALUE=25000000 -D STM32F437xx -D USE_FULL_ASSERT
  33              	@ -D __GNUC__ -D __VFP_FP__ -D ARM_MATH_CM4 -D LOG_INFO
  34              	@ ../STM32Cube_FW_F4_V1.4.0/Drivers/STM32F4xx_HAL_Driver/Src/stm32f4xx_hal_i2c_ex.c
  35              	@ -mcpu=cortex-m4 -mthumb -auxbase-strip out/stm32f4xx_hal_i2c_ex.o -g
  36              	@ -ggdb3 -Os -Os -Wall -Wstrict-prototypes -Wextra -std=gnu90
  37              	@ -ffunction-sections -fdata-sections -fverbose-asm
  38              	@ options enabled:  -faggressive-loop-optimizations -fauto-inc-dec
  39              	@ -fbranch-count-reg -fcaller-saves -fcombine-stack-adjustments -fcommon
  40              	@ -fcompare-elim -fcprop-registers -fcrossjumping -fcse-follow-jumps
  41              	@ -fdata-sections -fdefer-pop -fdelete-null-pointer-checks -fdevirtualize
  42              	@ -fdevirtualize-speculatively -fdwarf2-cfi-asm -fearly-inlining
  43              	@ -feliminate-unused-debug-types -fexpensive-optimizations
  44              	@ -fforward-propagate -ffunction-cse -ffunction-sections -fgcse -fgcse-lm
  45              	@ -fgnu-runtime -fgnu-unique -fguess-branch-probability
  46              	@ -fhoist-adjacent-loads -fident -fif-conversion -fif-conversion2
  47              	@ -findirect-inlining -finline -finline-atomics -finline-functions
  48              	@ -finline-functions-called-once -finline-small-functions -fipa-cp
  49              	@ -fipa-profile -fipa-pure-const -fipa-reference -fipa-sra
  50              	@ -fira-hoist-pressure -fira-share-save-slots -fira-share-spill-slots
  51              	@ -fisolate-erroneous-paths-dereference -fivopts -fkeep-static-consts
  52              	@ -fleading-underscore -fmath-errno -fmerge-constants -fmerge-debug-strings
  53              	@ -fomit-frame-pointer -foptimize-sibling-calls -fpartial-inlining
  54              	@ -fpeephole -fpeephole2 -fprefetch-loop-arrays -freg-struct-return
  55              	@ -freorder-blocks -freorder-functions -frerun-cse-after-loop
  56              	@ -fsched-critical-path-heuristic -fsched-dep-count-heuristic
  57              	@ -fsched-group-heuristic -fsched-interblock -fsched-last-insn-heuristic
ARM GAS  C:\cygwin\tmp\ccR8DGvd.s 			page 2


  58              	@ -fsched-pressure -fsched-rank-heuristic -fsched-spec
  59              	@ -fsched-spec-insn-heuristic -fsched-stalled-insns-dep -fschedule-insns2
  60              	@ -fsection-anchors -fshow-column -fsigned-zeros -fsplit-ivs-in-unroller
  61              	@ -fsplit-wide-types -fstrict-aliasing -fstrict-overflow
  62              	@ -fstrict-volatile-bitfields -fsync-libcalls -fthread-jumps
  63              	@ -ftoplevel-reorder -ftrapping-math -ftree-bit-ccp -ftree-builtin-call-dce
  64              	@ -ftree-ccp -ftree-ch -ftree-coalesce-vars -ftree-copy-prop
  65              	@ -ftree-copyrename -ftree-cselim -ftree-dce -ftree-dominator-opts
  66              	@ -ftree-dse -ftree-forwprop -ftree-fre -ftree-loop-if-convert
  67              	@ -ftree-loop-im -ftree-loop-ivcanon -ftree-loop-optimize
  68              	@ -ftree-parallelize-loops= -ftree-phiprop -ftree-pre -ftree-pta
  69              	@ -ftree-reassoc -ftree-scev-cprop -ftree-sink -ftree-slsr -ftree-sra
  70              	@ -ftree-switch-conversion -ftree-tail-merge -ftree-ter -ftree-vrp
  71              	@ -funit-at-a-time -fvar-tracking -fvar-tracking-assignments -fverbose-asm
  72              	@ -fzero-initialized-in-bss -mlittle-endian -mlra
  73              	@ -mpic-data-is-text-relative -msched-prolog -mthumb -munaligned-access
  74              	@ -mvectorize-with-neon-quad
  75              	
  76              		.text
  77              	.Ltext0:
  78              		.cfi_sections	.debug_frame
  79              		.section	.text.HAL_I2CEx_ConfigAnalogFilter,"ax",%progbits
  80              		.align	1
  81              		.global	HAL_I2CEx_ConfigAnalogFilter
  82              		.thumb
  83              		.thumb_func
  84              		.type	HAL_I2CEx_ConfigAnalogFilter, %function
  85              	HAL_I2CEx_ConfigAnalogFilter:
  86              	.LFB123:
  87              		.file 1 "../STM32Cube_FW_F4_V1.4.0/Drivers/STM32F4xx_HAL_Driver/Src/stm32f4xx_hal_i2c_ex.c"
   1:../STM32Cube_FW_F4_V1.4.0/Drivers/STM32F4xx_HAL_Driver/Src/stm32f4xx_hal_i2c_ex.c **** /**
   2:../STM32Cube_FW_F4_V1.4.0/Drivers/STM32F4xx_HAL_Driver/Src/stm32f4xx_hal_i2c_ex.c ****   ******************************************************************************
   3:../STM32Cube_FW_F4_V1.4.0/Drivers/STM32F4xx_HAL_Driver/Src/stm32f4xx_hal_i2c_ex.c ****   * @file    stm32f4xx_hal_i2c_ex.c
   4:../STM32Cube_FW_F4_V1.4.0/Drivers/STM32F4xx_HAL_Driver/Src/stm32f4xx_hal_i2c_ex.c ****   * @author  MCD Application Team
   5:../STM32Cube_FW_F4_V1.4.0/Drivers/STM32F4xx_HAL_Driver/Src/stm32f4xx_hal_i2c_ex.c ****   * @version V1.2.0
   6:../STM32Cube_FW_F4_V1.4.0/Drivers/STM32F4xx_HAL_Driver/Src/stm32f4xx_hal_i2c_ex.c ****   * @date    26-December-2014
   7:../STM32Cube_FW_F4_V1.4.0/Drivers/STM32F4xx_HAL_Driver/Src/stm32f4xx_hal_i2c_ex.c ****   * @brief   I2C Extension HAL module driver.
   8:../STM32Cube_FW_F4_V1.4.0/Drivers/STM32F4xx_HAL_Driver/Src/stm32f4xx_hal_i2c_ex.c ****   *          This file provides firmware functions to manage the following 
   9:../STM32Cube_FW_F4_V1.4.0/Drivers/STM32F4xx_HAL_Driver/Src/stm32f4xx_hal_i2c_ex.c ****   *          functionalities of I2C extension peripheral:
  10:../STM32Cube_FW_F4_V1.4.0/Drivers/STM32F4xx_HAL_Driver/Src/stm32f4xx_hal_i2c_ex.c ****   *           + Extension features functions
  11:../STM32Cube_FW_F4_V1.4.0/Drivers/STM32F4xx_HAL_Driver/Src/stm32f4xx_hal_i2c_ex.c ****   *    
  12:../STM32Cube_FW_F4_V1.4.0/Drivers/STM32F4xx_HAL_Driver/Src/stm32f4xx_hal_i2c_ex.c ****   @verbatim
  13:../STM32Cube_FW_F4_V1.4.0/Drivers/STM32F4xx_HAL_Driver/Src/stm32f4xx_hal_i2c_ex.c ****   ==============================================================================
  14:../STM32Cube_FW_F4_V1.4.0/Drivers/STM32F4xx_HAL_Driver/Src/stm32f4xx_hal_i2c_ex.c ****                ##### I2C peripheral extension features  #####
  15:../STM32Cube_FW_F4_V1.4.0/Drivers/STM32F4xx_HAL_Driver/Src/stm32f4xx_hal_i2c_ex.c ****   ==============================================================================
  16:../STM32Cube_FW_F4_V1.4.0/Drivers/STM32F4xx_HAL_Driver/Src/stm32f4xx_hal_i2c_ex.c ****            
  17:../STM32Cube_FW_F4_V1.4.0/Drivers/STM32F4xx_HAL_Driver/Src/stm32f4xx_hal_i2c_ex.c ****   [..] Comparing to other previous devices, the I2C interface for STM32F427xx/437xx/ 
  18:../STM32Cube_FW_F4_V1.4.0/Drivers/STM32F4xx_HAL_Driver/Src/stm32f4xx_hal_i2c_ex.c ****        429xx/439xx devices contains the following additional features :
  19:../STM32Cube_FW_F4_V1.4.0/Drivers/STM32F4xx_HAL_Driver/Src/stm32f4xx_hal_i2c_ex.c ****        
  20:../STM32Cube_FW_F4_V1.4.0/Drivers/STM32F4xx_HAL_Driver/Src/stm32f4xx_hal_i2c_ex.c ****        (+) Possibility to disable or enable Analog Noise Filter
  21:../STM32Cube_FW_F4_V1.4.0/Drivers/STM32F4xx_HAL_Driver/Src/stm32f4xx_hal_i2c_ex.c ****        (+) Use of a configured Digital Noise Filter
  22:../STM32Cube_FW_F4_V1.4.0/Drivers/STM32F4xx_HAL_Driver/Src/stm32f4xx_hal_i2c_ex.c ****    
  23:../STM32Cube_FW_F4_V1.4.0/Drivers/STM32F4xx_HAL_Driver/Src/stm32f4xx_hal_i2c_ex.c ****                      ##### How to use this driver #####
  24:../STM32Cube_FW_F4_V1.4.0/Drivers/STM32F4xx_HAL_Driver/Src/stm32f4xx_hal_i2c_ex.c ****   ==============================================================================
  25:../STM32Cube_FW_F4_V1.4.0/Drivers/STM32F4xx_HAL_Driver/Src/stm32f4xx_hal_i2c_ex.c ****   [..] This driver provides functions to configure Noise Filter
  26:../STM32Cube_FW_F4_V1.4.0/Drivers/STM32F4xx_HAL_Driver/Src/stm32f4xx_hal_i2c_ex.c ****     (#) Configure I2C Analog noise filter using the function HAL_I2C_AnalogFilter_Config()
  27:../STM32Cube_FW_F4_V1.4.0/Drivers/STM32F4xx_HAL_Driver/Src/stm32f4xx_hal_i2c_ex.c ****     (#) Configure I2C Digital noise filter using the function HAL_I2C_DigitalFilter_Config()
ARM GAS  C:\cygwin\tmp\ccR8DGvd.s 			page 3


  28:../STM32Cube_FW_F4_V1.4.0/Drivers/STM32F4xx_HAL_Driver/Src/stm32f4xx_hal_i2c_ex.c ****   
  29:../STM32Cube_FW_F4_V1.4.0/Drivers/STM32F4xx_HAL_Driver/Src/stm32f4xx_hal_i2c_ex.c ****   @endverbatim
  30:../STM32Cube_FW_F4_V1.4.0/Drivers/STM32F4xx_HAL_Driver/Src/stm32f4xx_hal_i2c_ex.c ****   ******************************************************************************
  31:../STM32Cube_FW_F4_V1.4.0/Drivers/STM32F4xx_HAL_Driver/Src/stm32f4xx_hal_i2c_ex.c ****   * @attention
  32:../STM32Cube_FW_F4_V1.4.0/Drivers/STM32F4xx_HAL_Driver/Src/stm32f4xx_hal_i2c_ex.c ****   *
  33:../STM32Cube_FW_F4_V1.4.0/Drivers/STM32F4xx_HAL_Driver/Src/stm32f4xx_hal_i2c_ex.c ****   * <h2><center>&copy; COPYRIGHT(c) 2014 STMicroelectronics</center></h2>
  34:../STM32Cube_FW_F4_V1.4.0/Drivers/STM32F4xx_HAL_Driver/Src/stm32f4xx_hal_i2c_ex.c ****   *
  35:../STM32Cube_FW_F4_V1.4.0/Drivers/STM32F4xx_HAL_Driver/Src/stm32f4xx_hal_i2c_ex.c ****   * Redistribution and use in source and binary forms, with or without modification,
  36:../STM32Cube_FW_F4_V1.4.0/Drivers/STM32F4xx_HAL_Driver/Src/stm32f4xx_hal_i2c_ex.c ****   * are permitted provided that the following conditions are met:
  37:../STM32Cube_FW_F4_V1.4.0/Drivers/STM32F4xx_HAL_Driver/Src/stm32f4xx_hal_i2c_ex.c ****   *   1. Redistributions of source code must retain the above copyright notice,
  38:../STM32Cube_FW_F4_V1.4.0/Drivers/STM32F4xx_HAL_Driver/Src/stm32f4xx_hal_i2c_ex.c ****   *      this list of conditions and the following disclaimer.
  39:../STM32Cube_FW_F4_V1.4.0/Drivers/STM32F4xx_HAL_Driver/Src/stm32f4xx_hal_i2c_ex.c ****   *   2. Redistributions in binary form must reproduce the above copyright notice,
  40:../STM32Cube_FW_F4_V1.4.0/Drivers/STM32F4xx_HAL_Driver/Src/stm32f4xx_hal_i2c_ex.c ****   *      this list of conditions and the following disclaimer in the documentation
  41:../STM32Cube_FW_F4_V1.4.0/Drivers/STM32F4xx_HAL_Driver/Src/stm32f4xx_hal_i2c_ex.c ****   *      and/or other materials provided with the distribution.
  42:../STM32Cube_FW_F4_V1.4.0/Drivers/STM32F4xx_HAL_Driver/Src/stm32f4xx_hal_i2c_ex.c ****   *   3. Neither the name of STMicroelectronics nor the names of its contributors
  43:../STM32Cube_FW_F4_V1.4.0/Drivers/STM32F4xx_HAL_Driver/Src/stm32f4xx_hal_i2c_ex.c ****   *      may be used to endorse or promote products derived from this software
  44:../STM32Cube_FW_F4_V1.4.0/Drivers/STM32F4xx_HAL_Driver/Src/stm32f4xx_hal_i2c_ex.c ****   *      without specific prior written permission.
  45:../STM32Cube_FW_F4_V1.4.0/Drivers/STM32F4xx_HAL_Driver/Src/stm32f4xx_hal_i2c_ex.c ****   *
  46:../STM32Cube_FW_F4_V1.4.0/Drivers/STM32F4xx_HAL_Driver/Src/stm32f4xx_hal_i2c_ex.c ****   * THIS SOFTWARE IS PROVIDED BY THE COPYRIGHT HOLDERS AND CONTRIBUTORS "AS IS"
  47:../STM32Cube_FW_F4_V1.4.0/Drivers/STM32F4xx_HAL_Driver/Src/stm32f4xx_hal_i2c_ex.c ****   * AND ANY EXPRESS OR IMPLIED WARRANTIES, INCLUDING, BUT NOT LIMITED TO, THE
  48:../STM32Cube_FW_F4_V1.4.0/Drivers/STM32F4xx_HAL_Driver/Src/stm32f4xx_hal_i2c_ex.c ****   * IMPLIED WARRANTIES OF MERCHANTABILITY AND FITNESS FOR A PARTICULAR PURPOSE ARE
  49:../STM32Cube_FW_F4_V1.4.0/Drivers/STM32F4xx_HAL_Driver/Src/stm32f4xx_hal_i2c_ex.c ****   * DISCLAIMED. IN NO EVENT SHALL THE COPYRIGHT HOLDER OR CONTRIBUTORS BE LIABLE
  50:../STM32Cube_FW_F4_V1.4.0/Drivers/STM32F4xx_HAL_Driver/Src/stm32f4xx_hal_i2c_ex.c ****   * FOR ANY DIRECT, INDIRECT, INCIDENTAL, SPECIAL, EXEMPLARY, OR CONSEQUENTIAL
  51:../STM32Cube_FW_F4_V1.4.0/Drivers/STM32F4xx_HAL_Driver/Src/stm32f4xx_hal_i2c_ex.c ****   * DAMAGES (INCLUDING, BUT NOT LIMITED TO, PROCUREMENT OF SUBSTITUTE GOODS OR
  52:../STM32Cube_FW_F4_V1.4.0/Drivers/STM32F4xx_HAL_Driver/Src/stm32f4xx_hal_i2c_ex.c ****   * SERVICES; LOSS OF USE, DATA, OR PROFITS; OR BUSINESS INTERRUPTION) HOWEVER
  53:../STM32Cube_FW_F4_V1.4.0/Drivers/STM32F4xx_HAL_Driver/Src/stm32f4xx_hal_i2c_ex.c ****   * CAUSED AND ON ANY THEORY OF LIABILITY, WHETHER IN CONTRACT, STRICT LIABILITY,
  54:../STM32Cube_FW_F4_V1.4.0/Drivers/STM32F4xx_HAL_Driver/Src/stm32f4xx_hal_i2c_ex.c ****   * OR TORT (INCLUDING NEGLIGENCE OR OTHERWISE) ARISING IN ANY WAY OUT OF THE USE
  55:../STM32Cube_FW_F4_V1.4.0/Drivers/STM32F4xx_HAL_Driver/Src/stm32f4xx_hal_i2c_ex.c ****   * OF THIS SOFTWARE, EVEN IF ADVISED OF THE POSSIBILITY OF SUCH DAMAGE.
  56:../STM32Cube_FW_F4_V1.4.0/Drivers/STM32F4xx_HAL_Driver/Src/stm32f4xx_hal_i2c_ex.c ****   *
  57:../STM32Cube_FW_F4_V1.4.0/Drivers/STM32F4xx_HAL_Driver/Src/stm32f4xx_hal_i2c_ex.c ****   ******************************************************************************
  58:../STM32Cube_FW_F4_V1.4.0/Drivers/STM32F4xx_HAL_Driver/Src/stm32f4xx_hal_i2c_ex.c ****   */ 
  59:../STM32Cube_FW_F4_V1.4.0/Drivers/STM32F4xx_HAL_Driver/Src/stm32f4xx_hal_i2c_ex.c **** 
  60:../STM32Cube_FW_F4_V1.4.0/Drivers/STM32F4xx_HAL_Driver/Src/stm32f4xx_hal_i2c_ex.c **** /* Includes ------------------------------------------------------------------*/
  61:../STM32Cube_FW_F4_V1.4.0/Drivers/STM32F4xx_HAL_Driver/Src/stm32f4xx_hal_i2c_ex.c **** #include "stm32f4xx_hal.h"
  62:../STM32Cube_FW_F4_V1.4.0/Drivers/STM32F4xx_HAL_Driver/Src/stm32f4xx_hal_i2c_ex.c **** 
  63:../STM32Cube_FW_F4_V1.4.0/Drivers/STM32F4xx_HAL_Driver/Src/stm32f4xx_hal_i2c_ex.c **** /** @addtogroup STM32F4xx_HAL_Driver
  64:../STM32Cube_FW_F4_V1.4.0/Drivers/STM32F4xx_HAL_Driver/Src/stm32f4xx_hal_i2c_ex.c ****   * @{
  65:../STM32Cube_FW_F4_V1.4.0/Drivers/STM32F4xx_HAL_Driver/Src/stm32f4xx_hal_i2c_ex.c ****   */
  66:../STM32Cube_FW_F4_V1.4.0/Drivers/STM32F4xx_HAL_Driver/Src/stm32f4xx_hal_i2c_ex.c **** 
  67:../STM32Cube_FW_F4_V1.4.0/Drivers/STM32F4xx_HAL_Driver/Src/stm32f4xx_hal_i2c_ex.c **** /** @defgroup I2CEx I2CEx
  68:../STM32Cube_FW_F4_V1.4.0/Drivers/STM32F4xx_HAL_Driver/Src/stm32f4xx_hal_i2c_ex.c ****   * @brief I2C HAL module driver
  69:../STM32Cube_FW_F4_V1.4.0/Drivers/STM32F4xx_HAL_Driver/Src/stm32f4xx_hal_i2c_ex.c ****   * @{
  70:../STM32Cube_FW_F4_V1.4.0/Drivers/STM32F4xx_HAL_Driver/Src/stm32f4xx_hal_i2c_ex.c ****   */
  71:../STM32Cube_FW_F4_V1.4.0/Drivers/STM32F4xx_HAL_Driver/Src/stm32f4xx_hal_i2c_ex.c **** 
  72:../STM32Cube_FW_F4_V1.4.0/Drivers/STM32F4xx_HAL_Driver/Src/stm32f4xx_hal_i2c_ex.c **** #ifdef HAL_I2C_MODULE_ENABLED
  73:../STM32Cube_FW_F4_V1.4.0/Drivers/STM32F4xx_HAL_Driver/Src/stm32f4xx_hal_i2c_ex.c **** 
  74:../STM32Cube_FW_F4_V1.4.0/Drivers/STM32F4xx_HAL_Driver/Src/stm32f4xx_hal_i2c_ex.c **** #if defined(STM32F427xx) || defined(STM32F437xx) || defined(STM32F429xx)|| defined(STM32F439xx) ||\
  75:../STM32Cube_FW_F4_V1.4.0/Drivers/STM32F4xx_HAL_Driver/Src/stm32f4xx_hal_i2c_ex.c ****     defined(STM32F401xC) || defined(STM32F401xE) || defined(STM32F411xE)
  76:../STM32Cube_FW_F4_V1.4.0/Drivers/STM32F4xx_HAL_Driver/Src/stm32f4xx_hal_i2c_ex.c **** /* Private typedef -----------------------------------------------------------*/
  77:../STM32Cube_FW_F4_V1.4.0/Drivers/STM32F4xx_HAL_Driver/Src/stm32f4xx_hal_i2c_ex.c **** /* Private define ------------------------------------------------------------*/
  78:../STM32Cube_FW_F4_V1.4.0/Drivers/STM32F4xx_HAL_Driver/Src/stm32f4xx_hal_i2c_ex.c **** /* Private macro -------------------------------------------------------------*/
  79:../STM32Cube_FW_F4_V1.4.0/Drivers/STM32F4xx_HAL_Driver/Src/stm32f4xx_hal_i2c_ex.c **** /* Private variables ---------------------------------------------------------*/
  80:../STM32Cube_FW_F4_V1.4.0/Drivers/STM32F4xx_HAL_Driver/Src/stm32f4xx_hal_i2c_ex.c **** /* Private function prototypes -----------------------------------------------*/
  81:../STM32Cube_FW_F4_V1.4.0/Drivers/STM32F4xx_HAL_Driver/Src/stm32f4xx_hal_i2c_ex.c **** /* Exported functions --------------------------------------------------------*/
  82:../STM32Cube_FW_F4_V1.4.0/Drivers/STM32F4xx_HAL_Driver/Src/stm32f4xx_hal_i2c_ex.c **** /** @defgroup I2CEx_Exported_Functions I2C Exported Functions
  83:../STM32Cube_FW_F4_V1.4.0/Drivers/STM32F4xx_HAL_Driver/Src/stm32f4xx_hal_i2c_ex.c ****   * @{
  84:../STM32Cube_FW_F4_V1.4.0/Drivers/STM32F4xx_HAL_Driver/Src/stm32f4xx_hal_i2c_ex.c ****   */
ARM GAS  C:\cygwin\tmp\ccR8DGvd.s 			page 4


  85:../STM32Cube_FW_F4_V1.4.0/Drivers/STM32F4xx_HAL_Driver/Src/stm32f4xx_hal_i2c_ex.c **** 
  86:../STM32Cube_FW_F4_V1.4.0/Drivers/STM32F4xx_HAL_Driver/Src/stm32f4xx_hal_i2c_ex.c **** 
  87:../STM32Cube_FW_F4_V1.4.0/Drivers/STM32F4xx_HAL_Driver/Src/stm32f4xx_hal_i2c_ex.c **** /** @defgroup I2CEx_Exported_Functions_Group1 Extension features functions 
  88:../STM32Cube_FW_F4_V1.4.0/Drivers/STM32F4xx_HAL_Driver/Src/stm32f4xx_hal_i2c_ex.c ****  *  @brief   Extension features functions 
  89:../STM32Cube_FW_F4_V1.4.0/Drivers/STM32F4xx_HAL_Driver/Src/stm32f4xx_hal_i2c_ex.c ****  *
  90:../STM32Cube_FW_F4_V1.4.0/Drivers/STM32F4xx_HAL_Driver/Src/stm32f4xx_hal_i2c_ex.c **** @verbatim   
  91:../STM32Cube_FW_F4_V1.4.0/Drivers/STM32F4xx_HAL_Driver/Src/stm32f4xx_hal_i2c_ex.c ****  ===============================================================================
  92:../STM32Cube_FW_F4_V1.4.0/Drivers/STM32F4xx_HAL_Driver/Src/stm32f4xx_hal_i2c_ex.c ****                       ##### Extension features functions #####
  93:../STM32Cube_FW_F4_V1.4.0/Drivers/STM32F4xx_HAL_Driver/Src/stm32f4xx_hal_i2c_ex.c ****  ===============================================================================  
  94:../STM32Cube_FW_F4_V1.4.0/Drivers/STM32F4xx_HAL_Driver/Src/stm32f4xx_hal_i2c_ex.c ****     [..] This section provides functions allowing to:
  95:../STM32Cube_FW_F4_V1.4.0/Drivers/STM32F4xx_HAL_Driver/Src/stm32f4xx_hal_i2c_ex.c ****       (+) Configure Noise Filters 
  96:../STM32Cube_FW_F4_V1.4.0/Drivers/STM32F4xx_HAL_Driver/Src/stm32f4xx_hal_i2c_ex.c **** 
  97:../STM32Cube_FW_F4_V1.4.0/Drivers/STM32F4xx_HAL_Driver/Src/stm32f4xx_hal_i2c_ex.c **** @endverbatim
  98:../STM32Cube_FW_F4_V1.4.0/Drivers/STM32F4xx_HAL_Driver/Src/stm32f4xx_hal_i2c_ex.c ****   * @{
  99:../STM32Cube_FW_F4_V1.4.0/Drivers/STM32F4xx_HAL_Driver/Src/stm32f4xx_hal_i2c_ex.c ****   */
 100:../STM32Cube_FW_F4_V1.4.0/Drivers/STM32F4xx_HAL_Driver/Src/stm32f4xx_hal_i2c_ex.c ****   
 101:../STM32Cube_FW_F4_V1.4.0/Drivers/STM32F4xx_HAL_Driver/Src/stm32f4xx_hal_i2c_ex.c **** /**
 102:../STM32Cube_FW_F4_V1.4.0/Drivers/STM32F4xx_HAL_Driver/Src/stm32f4xx_hal_i2c_ex.c ****   * @brief  Configures I2C Analog noise filter. 
 103:../STM32Cube_FW_F4_V1.4.0/Drivers/STM32F4xx_HAL_Driver/Src/stm32f4xx_hal_i2c_ex.c ****   * @param  hi2c: pointer to a I2C_HandleTypeDef structure that contains
 104:../STM32Cube_FW_F4_V1.4.0/Drivers/STM32F4xx_HAL_Driver/Src/stm32f4xx_hal_i2c_ex.c ****   *                the configuration information for the specified I2Cx peripheral.
 105:../STM32Cube_FW_F4_V1.4.0/Drivers/STM32F4xx_HAL_Driver/Src/stm32f4xx_hal_i2c_ex.c ****   * @param  AnalogFilter: new state of the Analog filter.
 106:../STM32Cube_FW_F4_V1.4.0/Drivers/STM32F4xx_HAL_Driver/Src/stm32f4xx_hal_i2c_ex.c ****   * @retval HAL status
 107:../STM32Cube_FW_F4_V1.4.0/Drivers/STM32F4xx_HAL_Driver/Src/stm32f4xx_hal_i2c_ex.c ****   */
 108:../STM32Cube_FW_F4_V1.4.0/Drivers/STM32F4xx_HAL_Driver/Src/stm32f4xx_hal_i2c_ex.c **** HAL_StatusTypeDef HAL_I2CEx_ConfigAnalogFilter(I2C_HandleTypeDef *hi2c, uint32_t AnalogFilter)
 109:../STM32Cube_FW_F4_V1.4.0/Drivers/STM32F4xx_HAL_Driver/Src/stm32f4xx_hal_i2c_ex.c **** {
  88              		.loc 1 109 0
  89              		.cfi_startproc
  90              		@ args = 0, pretend = 0, frame = 0
  91              		@ frame_needed = 0, uses_anonymous_args = 0
  92              	.LVL0:
  93 0000 38B5     		push	{r3, r4, r5, lr}	@
  94              		.cfi_def_cfa_offset 16
  95              		.cfi_offset 3, -16
  96              		.cfi_offset 4, -12
  97              		.cfi_offset 5, -8
  98              		.cfi_offset 14, -4
 110:../STM32Cube_FW_F4_V1.4.0/Drivers/STM32F4xx_HAL_Driver/Src/stm32f4xx_hal_i2c_ex.c ****   uint32_t tmp = 0;
 111:../STM32Cube_FW_F4_V1.4.0/Drivers/STM32F4xx_HAL_Driver/Src/stm32f4xx_hal_i2c_ex.c ****   
 112:../STM32Cube_FW_F4_V1.4.0/Drivers/STM32F4xx_HAL_Driver/Src/stm32f4xx_hal_i2c_ex.c ****   /* Check the parameters */
 113:../STM32Cube_FW_F4_V1.4.0/Drivers/STM32F4xx_HAL_Driver/Src/stm32f4xx_hal_i2c_ex.c ****   assert_param(IS_I2C_ALL_INSTANCE(hi2c->Instance));
  99              		.loc 1 113 0
 100 0002 1E4A     		ldr	r2, .L11	@ tmp128,
 101 0004 0368     		ldr	r3, [r0]	@ D.8205, hi2c_6(D)->Instance
 102 0006 9342     		cmp	r3, r2	@ D.8205, tmp128
 109:../STM32Cube_FW_F4_V1.4.0/Drivers/STM32F4xx_HAL_Driver/Src/stm32f4xx_hal_i2c_ex.c ****   uint32_t tmp = 0;
 103              		.loc 1 109 0
 104 0008 0446     		mov	r4, r0	@ hi2c, hi2c
 105 000a 0D46     		mov	r5, r1	@ AnalogFilter, AnalogFilter
 106              		.loc 1 113 0
 107 000c 0BD0     		beq	.L2	@,
 108              		.loc 1 113 0 is_stmt 0 discriminator 1
 109 000e 02F58062 		add	r2, r2, #1024	@ tmp129, tmp129,
 110 0012 9342     		cmp	r3, r2	@ D.8205, tmp129
 111 0014 07D0     		beq	.L2	@,
 112              		.loc 1 113 0 discriminator 2
 113 0016 02F58062 		add	r2, r2, #1024	@ tmp130, tmp130,
 114 001a 9342     		cmp	r3, r2	@ D.8205, tmp130
ARM GAS  C:\cygwin\tmp\ccR8DGvd.s 			page 5


 115 001c 03D0     		beq	.L2	@,
 116              		.loc 1 113 0 discriminator 3
 117 001e 1848     		ldr	r0, .L11+4	@,
 118              	.LVL1:
 119 0020 7121     		movs	r1, #113	@,
 120              	.LVL2:
 121 0022 FFF7FEFF 		bl	assert_failed	@
 122              	.LVL3:
 123              	.L2:
 114:../STM32Cube_FW_F4_V1.4.0/Drivers/STM32F4xx_HAL_Driver/Src/stm32f4xx_hal_i2c_ex.c ****   assert_param(IS_I2C_ANALOG_FILTER(AnalogFilter));
 124              		.loc 1 114 0 is_stmt 1
 125 0026 35F01003 		bics	r3, r5, #16	@ tmp145, AnalogFilter,
 126 002a 03D0     		beq	.L3	@,
 127              		.loc 1 114 0 is_stmt 0 discriminator 2
 128 002c 1448     		ldr	r0, .L11+4	@,
 129 002e 7221     		movs	r1, #114	@,
 130 0030 FFF7FEFF 		bl	assert_failed	@
 131              	.LVL4:
 132              	.L3:
 115:../STM32Cube_FW_F4_V1.4.0/Drivers/STM32F4xx_HAL_Driver/Src/stm32f4xx_hal_i2c_ex.c ****   
 116:../STM32Cube_FW_F4_V1.4.0/Drivers/STM32F4xx_HAL_Driver/Src/stm32f4xx_hal_i2c_ex.c ****   tmp = hi2c->State;
 133              		.loc 1 116 0 is_stmt 1
 134 0034 94F83520 		ldrb	r2, [r4, #53]	@ zero_extendqisi2	@ hi2c_6(D)->State, hi2c_6(D)->State
 135 0038 D2B2     		uxtb	r2, r2	@ D.8206, hi2c_6(D)->State
 136              	.LVL5:
 117:../STM32Cube_FW_F4_V1.4.0/Drivers/STM32F4xx_HAL_Driver/Src/stm32f4xx_hal_i2c_ex.c ****   if((tmp == HAL_I2C_STATE_BUSY) || (tmp == HAL_I2C_STATE_BUSY_TX) || (tmp == HAL_I2C_STATE_BUSY_RX
 137              		.loc 1 117 0
 138 003a 02F0EF00 		and	r0, r2, #239	@ tmp138, D.8206,
 139 003e 0228     		cmp	r0, #2	@ tmp138,
 140 0040 4FF00203 		mov	r3, #2	@ D.8204,
 141 0044 19D0     		beq	.L4	@,
 142              		.loc 1 117 0 is_stmt 0 discriminator 2
 143 0046 222A     		cmp	r2, #34	@ D.8206,
 144 0048 16D0     		beq	.L6	@,
 118:../STM32Cube_FW_F4_V1.4.0/Drivers/STM32F4xx_HAL_Driver/Src/stm32f4xx_hal_i2c_ex.c ****   {
 119:../STM32Cube_FW_F4_V1.4.0/Drivers/STM32F4xx_HAL_Driver/Src/stm32f4xx_hal_i2c_ex.c ****     return HAL_BUSY;
 120:../STM32Cube_FW_F4_V1.4.0/Drivers/STM32F4xx_HAL_Driver/Src/stm32f4xx_hal_i2c_ex.c ****   }
 121:../STM32Cube_FW_F4_V1.4.0/Drivers/STM32F4xx_HAL_Driver/Src/stm32f4xx_hal_i2c_ex.c ****   
 122:../STM32Cube_FW_F4_V1.4.0/Drivers/STM32F4xx_HAL_Driver/Src/stm32f4xx_hal_i2c_ex.c ****   hi2c->State = HAL_I2C_STATE_BUSY;
 145              		.loc 1 122 0 is_stmt 1
 146 004a 84F83530 		strb	r3, [r4, #53]	@ D.8204, hi2c_6(D)->State
 123:../STM32Cube_FW_F4_V1.4.0/Drivers/STM32F4xx_HAL_Driver/Src/stm32f4xx_hal_i2c_ex.c ****   
 124:../STM32Cube_FW_F4_V1.4.0/Drivers/STM32F4xx_HAL_Driver/Src/stm32f4xx_hal_i2c_ex.c ****   /* Disable the selected I2C peripheral */
 125:../STM32Cube_FW_F4_V1.4.0/Drivers/STM32F4xx_HAL_Driver/Src/stm32f4xx_hal_i2c_ex.c ****   __HAL_I2C_DISABLE(hi2c);    
 147              		.loc 1 125 0
 148 004e 2368     		ldr	r3, [r4]	@ D.8205, hi2c_6(D)->Instance
 149 0050 1A68     		ldr	r2, [r3]	@ D.8207, _14->CR1
 150              	.LVL6:
 151 0052 22F00102 		bic	r2, r2, #1	@ D.8207, D.8207,
 152 0056 1A60     		str	r2, [r3]	@ D.8207, _14->CR1
 126:../STM32Cube_FW_F4_V1.4.0/Drivers/STM32F4xx_HAL_Driver/Src/stm32f4xx_hal_i2c_ex.c ****   
 127:../STM32Cube_FW_F4_V1.4.0/Drivers/STM32F4xx_HAL_Driver/Src/stm32f4xx_hal_i2c_ex.c ****   /* Reset I2Cx ANOFF bit */
 128:../STM32Cube_FW_F4_V1.4.0/Drivers/STM32F4xx_HAL_Driver/Src/stm32f4xx_hal_i2c_ex.c ****   hi2c->Instance->FLTR &= ~(I2C_FLTR_ANOFF);    
 153              		.loc 1 128 0
 154 0058 5A6A     		ldr	r2, [r3, #36]	@ D.8207, _14->FLTR
 155 005a 22F01002 		bic	r2, r2, #16	@ D.8207, D.8207,
 156 005e 5A62     		str	r2, [r3, #36]	@ D.8207, _14->FLTR
ARM GAS  C:\cygwin\tmp\ccR8DGvd.s 			page 6


 129:../STM32Cube_FW_F4_V1.4.0/Drivers/STM32F4xx_HAL_Driver/Src/stm32f4xx_hal_i2c_ex.c ****   
 130:../STM32Cube_FW_F4_V1.4.0/Drivers/STM32F4xx_HAL_Driver/Src/stm32f4xx_hal_i2c_ex.c ****   /* Disable the analog filter */
 131:../STM32Cube_FW_F4_V1.4.0/Drivers/STM32F4xx_HAL_Driver/Src/stm32f4xx_hal_i2c_ex.c ****   hi2c->Instance->FLTR |= AnalogFilter;
 157              		.loc 1 131 0
 158 0060 596A     		ldr	r1, [r3, #36]	@ D.8207, _14->FLTR
 159 0062 2943     		orrs	r1, r1, r5	@, D.8207, D.8207, AnalogFilter
 160 0064 5962     		str	r1, [r3, #36]	@ D.8207, _14->FLTR
 132:../STM32Cube_FW_F4_V1.4.0/Drivers/STM32F4xx_HAL_Driver/Src/stm32f4xx_hal_i2c_ex.c ****   
 133:../STM32Cube_FW_F4_V1.4.0/Drivers/STM32F4xx_HAL_Driver/Src/stm32f4xx_hal_i2c_ex.c ****   __HAL_I2C_ENABLE(hi2c); 
 161              		.loc 1 133 0
 162 0066 1A68     		ldr	r2, [r3]	@ D.8207, _14->CR1
 163 0068 42F00102 		orr	r2, r2, #1	@ D.8207, D.8207,
 164 006c 1A60     		str	r2, [r3]	@ D.8207, _14->CR1
 134:../STM32Cube_FW_F4_V1.4.0/Drivers/STM32F4xx_HAL_Driver/Src/stm32f4xx_hal_i2c_ex.c ****   
 135:../STM32Cube_FW_F4_V1.4.0/Drivers/STM32F4xx_HAL_Driver/Src/stm32f4xx_hal_i2c_ex.c ****   hi2c->State = HAL_I2C_STATE_READY;
 165              		.loc 1 135 0
 166 006e 0123     		movs	r3, #1	@ tmp141,
 167 0070 84F83530 		strb	r3, [r4, #53]	@ tmp141, hi2c_6(D)->State
 136:../STM32Cube_FW_F4_V1.4.0/Drivers/STM32F4xx_HAL_Driver/Src/stm32f4xx_hal_i2c_ex.c ****   
 137:../STM32Cube_FW_F4_V1.4.0/Drivers/STM32F4xx_HAL_Driver/Src/stm32f4xx_hal_i2c_ex.c ****   return HAL_OK; 
 168              		.loc 1 137 0
 169 0074 0020     		movs	r0, #0	@ D.8204,
 170 0076 38BD     		pop	{r3, r4, r5, pc}	@
 171              	.LVL7:
 172              	.L6:
 119:../STM32Cube_FW_F4_V1.4.0/Drivers/STM32F4xx_HAL_Driver/Src/stm32f4xx_hal_i2c_ex.c ****   }
 173              		.loc 1 119 0
 174 0078 1846     		mov	r0, r3	@ D.8204, D.8204
 175              	.L4:
 138:../STM32Cube_FW_F4_V1.4.0/Drivers/STM32F4xx_HAL_Driver/Src/stm32f4xx_hal_i2c_ex.c **** }
 176              		.loc 1 138 0
 177 007a 38BD     		pop	{r3, r4, r5, pc}	@
 178              	.LVL8:
 179              	.L12:
 180              		.align	2
 181              	.L11:
 182 007c 00540040 		.word	1073763328
 183 0080 00000000 		.word	.LC0
 184              		.cfi_endproc
 185              	.LFE123:
 186              		.size	HAL_I2CEx_ConfigAnalogFilter, .-HAL_I2CEx_ConfigAnalogFilter
 187              		.section	.text.HAL_I2CEx_ConfigDigitalFilter,"ax",%progbits
 188              		.align	1
 189              		.global	HAL_I2CEx_ConfigDigitalFilter
 190              		.thumb
 191              		.thumb_func
 192              		.type	HAL_I2CEx_ConfigDigitalFilter, %function
 193              	HAL_I2CEx_ConfigDigitalFilter:
 194              	.LFB124:
 139:../STM32Cube_FW_F4_V1.4.0/Drivers/STM32F4xx_HAL_Driver/Src/stm32f4xx_hal_i2c_ex.c **** 
 140:../STM32Cube_FW_F4_V1.4.0/Drivers/STM32F4xx_HAL_Driver/Src/stm32f4xx_hal_i2c_ex.c **** /**
 141:../STM32Cube_FW_F4_V1.4.0/Drivers/STM32F4xx_HAL_Driver/Src/stm32f4xx_hal_i2c_ex.c ****   * @brief  Configures I2C Digital noise filter. 
 142:../STM32Cube_FW_F4_V1.4.0/Drivers/STM32F4xx_HAL_Driver/Src/stm32f4xx_hal_i2c_ex.c ****   * @param  hi2c: pointer to a I2C_HandleTypeDef structure that contains
 143:../STM32Cube_FW_F4_V1.4.0/Drivers/STM32F4xx_HAL_Driver/Src/stm32f4xx_hal_i2c_ex.c ****   *                the configuration information for the specified I2Cx peripheral.
 144:../STM32Cube_FW_F4_V1.4.0/Drivers/STM32F4xx_HAL_Driver/Src/stm32f4xx_hal_i2c_ex.c ****   * @param  DigitalFilter: Coefficient of digital noise filter between 0x00 and 0x0F.
 145:../STM32Cube_FW_F4_V1.4.0/Drivers/STM32F4xx_HAL_Driver/Src/stm32f4xx_hal_i2c_ex.c ****   * @retval HAL status
 146:../STM32Cube_FW_F4_V1.4.0/Drivers/STM32F4xx_HAL_Driver/Src/stm32f4xx_hal_i2c_ex.c ****   */
ARM GAS  C:\cygwin\tmp\ccR8DGvd.s 			page 7


 147:../STM32Cube_FW_F4_V1.4.0/Drivers/STM32F4xx_HAL_Driver/Src/stm32f4xx_hal_i2c_ex.c **** HAL_StatusTypeDef HAL_I2CEx_ConfigDigitalFilter(I2C_HandleTypeDef *hi2c, uint32_t DigitalFilter)
 148:../STM32Cube_FW_F4_V1.4.0/Drivers/STM32F4xx_HAL_Driver/Src/stm32f4xx_hal_i2c_ex.c **** {
 195              		.loc 1 148 0
 196              		.cfi_startproc
 197              		@ args = 0, pretend = 0, frame = 0
 198              		@ frame_needed = 0, uses_anonymous_args = 0
 199              	.LVL9:
 200 0000 38B5     		push	{r3, r4, r5, lr}	@
 201              		.cfi_def_cfa_offset 16
 202              		.cfi_offset 3, -16
 203              		.cfi_offset 4, -12
 204              		.cfi_offset 5, -8
 205              		.cfi_offset 14, -4
 149:../STM32Cube_FW_F4_V1.4.0/Drivers/STM32F4xx_HAL_Driver/Src/stm32f4xx_hal_i2c_ex.c ****   uint16_t tmpreg = 0;
 150:../STM32Cube_FW_F4_V1.4.0/Drivers/STM32F4xx_HAL_Driver/Src/stm32f4xx_hal_i2c_ex.c ****   uint32_t tmp = 0;  
 151:../STM32Cube_FW_F4_V1.4.0/Drivers/STM32F4xx_HAL_Driver/Src/stm32f4xx_hal_i2c_ex.c ****   
 152:../STM32Cube_FW_F4_V1.4.0/Drivers/STM32F4xx_HAL_Driver/Src/stm32f4xx_hal_i2c_ex.c ****   /* Check the parameters */
 153:../STM32Cube_FW_F4_V1.4.0/Drivers/STM32F4xx_HAL_Driver/Src/stm32f4xx_hal_i2c_ex.c ****   assert_param(IS_I2C_ALL_INSTANCE(hi2c->Instance));
 206              		.loc 1 153 0
 207 0002 1E4A     		ldr	r2, .L19	@ tmp129,
 208 0004 0368     		ldr	r3, [r0]	@ D.8212, hi2c_6(D)->Instance
 209 0006 9342     		cmp	r3, r2	@ D.8212, tmp129
 148:../STM32Cube_FW_F4_V1.4.0/Drivers/STM32F4xx_HAL_Driver/Src/stm32f4xx_hal_i2c_ex.c ****   uint16_t tmpreg = 0;
 210              		.loc 1 148 0
 211 0008 0546     		mov	r5, r0	@ hi2c, hi2c
 212 000a 0C46     		mov	r4, r1	@ DigitalFilter, DigitalFilter
 213              		.loc 1 153 0
 214 000c 0BD0     		beq	.L14	@,
 215              		.loc 1 153 0 is_stmt 0 discriminator 1
 216 000e 02F58062 		add	r2, r2, #1024	@ tmp130, tmp130,
 217 0012 9342     		cmp	r3, r2	@ D.8212, tmp130
 218 0014 07D0     		beq	.L14	@,
 219              		.loc 1 153 0 discriminator 2
 220 0016 02F58062 		add	r2, r2, #1024	@ tmp131, tmp131,
 221 001a 9342     		cmp	r3, r2	@ D.8212, tmp131
 222 001c 03D0     		beq	.L14	@,
 223              		.loc 1 153 0 discriminator 3
 224 001e 1848     		ldr	r0, .L19+4	@,
 225              	.LVL10:
 226 0020 9921     		movs	r1, #153	@,
 227              	.LVL11:
 228 0022 FFF7FEFF 		bl	assert_failed	@
 229              	.LVL12:
 230              	.L14:
 154:../STM32Cube_FW_F4_V1.4.0/Drivers/STM32F4xx_HAL_Driver/Src/stm32f4xx_hal_i2c_ex.c ****   assert_param(IS_I2C_DIGITAL_FILTER(DigitalFilter));
 231              		.loc 1 154 0 is_stmt 1
 232 0026 0F2C     		cmp	r4, #15	@ DigitalFilter,
 233 0028 03D9     		bls	.L15	@,
 234              		.loc 1 154 0 is_stmt 0 discriminator 1
 235 002a 1548     		ldr	r0, .L19+4	@,
 236 002c 9A21     		movs	r1, #154	@,
 237 002e FFF7FEFF 		bl	assert_failed	@
 238              	.LVL13:
 239              	.L15:
 155:../STM32Cube_FW_F4_V1.4.0/Drivers/STM32F4xx_HAL_Driver/Src/stm32f4xx_hal_i2c_ex.c ****   
 156:../STM32Cube_FW_F4_V1.4.0/Drivers/STM32F4xx_HAL_Driver/Src/stm32f4xx_hal_i2c_ex.c ****   tmp = hi2c->State;
 240              		.loc 1 156 0 is_stmt 1
ARM GAS  C:\cygwin\tmp\ccR8DGvd.s 			page 8


 241 0032 95F83520 		ldrb	r2, [r5, #53]	@ zero_extendqisi2	@ hi2c_6(D)->State, hi2c_6(D)->State
 242 0036 D2B2     		uxtb	r2, r2	@ D.8213, hi2c_6(D)->State
 243              	.LVL14:
 157:../STM32Cube_FW_F4_V1.4.0/Drivers/STM32F4xx_HAL_Driver/Src/stm32f4xx_hal_i2c_ex.c ****   if((tmp == HAL_I2C_STATE_BUSY) || (tmp == HAL_I2C_STATE_BUSY_TX) || (tmp == HAL_I2C_STATE_BUSY_RX
 244              		.loc 1 157 0
 245 0038 02F0EF00 		and	r0, r2, #239	@ tmp138, D.8213,
 246 003c 0228     		cmp	r0, #2	@ tmp138,
 247 003e 4FF00203 		mov	r3, #2	@ D.8211,
 248 0042 19D0     		beq	.L16	@,
 249              		.loc 1 157 0 is_stmt 0 discriminator 2
 250 0044 222A     		cmp	r2, #34	@ D.8213,
 251 0046 16D0     		beq	.L18	@,
 158:../STM32Cube_FW_F4_V1.4.0/Drivers/STM32F4xx_HAL_Driver/Src/stm32f4xx_hal_i2c_ex.c ****   {
 159:../STM32Cube_FW_F4_V1.4.0/Drivers/STM32F4xx_HAL_Driver/Src/stm32f4xx_hal_i2c_ex.c ****     return HAL_BUSY;
 160:../STM32Cube_FW_F4_V1.4.0/Drivers/STM32F4xx_HAL_Driver/Src/stm32f4xx_hal_i2c_ex.c ****   }
 161:../STM32Cube_FW_F4_V1.4.0/Drivers/STM32F4xx_HAL_Driver/Src/stm32f4xx_hal_i2c_ex.c ****   
 162:../STM32Cube_FW_F4_V1.4.0/Drivers/STM32F4xx_HAL_Driver/Src/stm32f4xx_hal_i2c_ex.c ****   hi2c->State = HAL_I2C_STATE_BUSY;
 252              		.loc 1 162 0 is_stmt 1
 253 0048 85F83530 		strb	r3, [r5, #53]	@ D.8211, hi2c_6(D)->State
 163:../STM32Cube_FW_F4_V1.4.0/Drivers/STM32F4xx_HAL_Driver/Src/stm32f4xx_hal_i2c_ex.c ****   
 164:../STM32Cube_FW_F4_V1.4.0/Drivers/STM32F4xx_HAL_Driver/Src/stm32f4xx_hal_i2c_ex.c ****   /* Disable the selected I2C peripheral */
 165:../STM32Cube_FW_F4_V1.4.0/Drivers/STM32F4xx_HAL_Driver/Src/stm32f4xx_hal_i2c_ex.c ****   __HAL_I2C_DISABLE(hi2c);  
 254              		.loc 1 165 0
 255 004c 2B68     		ldr	r3, [r5]	@ D.8212, hi2c_6(D)->Instance
 256 004e 1A68     		ldr	r2, [r3]	@ D.8214, _14->CR1
 257              	.LVL15:
 258 0050 22F00102 		bic	r2, r2, #1	@ D.8214, D.8214,
 259 0054 1A60     		str	r2, [r3]	@ D.8214, _14->CR1
 166:../STM32Cube_FW_F4_V1.4.0/Drivers/STM32F4xx_HAL_Driver/Src/stm32f4xx_hal_i2c_ex.c ****   
 167:../STM32Cube_FW_F4_V1.4.0/Drivers/STM32F4xx_HAL_Driver/Src/stm32f4xx_hal_i2c_ex.c ****   /* Get the old register value */
 168:../STM32Cube_FW_F4_V1.4.0/Drivers/STM32F4xx_HAL_Driver/Src/stm32f4xx_hal_i2c_ex.c ****   tmpreg = hi2c->Instance->FLTR;
 260              		.loc 1 168 0
 261 0056 596A     		ldr	r1, [r3, #36]	@ D.8214, _14->FLTR
 262              	.LVL16:
 169:../STM32Cube_FW_F4_V1.4.0/Drivers/STM32F4xx_HAL_Driver/Src/stm32f4xx_hal_i2c_ex.c ****   
 170:../STM32Cube_FW_F4_V1.4.0/Drivers/STM32F4xx_HAL_Driver/Src/stm32f4xx_hal_i2c_ex.c ****   /* Reset I2Cx DNF bit [3:0] */
 171:../STM32Cube_FW_F4_V1.4.0/Drivers/STM32F4xx_HAL_Driver/Src/stm32f4xx_hal_i2c_ex.c ****   tmpreg &= ~(I2C_FLTR_DNF);
 263              		.loc 1 171 0
 264 0058 4FF6F072 		movw	r2, #65520	@ tmpreg,
 265 005c 0A40     		ands	r2, r2, r1	@, tmpreg, tmpreg, D.8214
 266              	.LVL17:
 172:../STM32Cube_FW_F4_V1.4.0/Drivers/STM32F4xx_HAL_Driver/Src/stm32f4xx_hal_i2c_ex.c ****   
 173:../STM32Cube_FW_F4_V1.4.0/Drivers/STM32F4xx_HAL_Driver/Src/stm32f4xx_hal_i2c_ex.c ****   /* Set I2Cx DNF coefficient */
 174:../STM32Cube_FW_F4_V1.4.0/Drivers/STM32F4xx_HAL_Driver/Src/stm32f4xx_hal_i2c_ex.c ****   tmpreg |= DigitalFilter;
 267              		.loc 1 174 0
 268 005e 1443     		orrs	r4, r4, r2	@, tmp143, DigitalFilter, tmpreg
 269              	.LVL18:
 175:../STM32Cube_FW_F4_V1.4.0/Drivers/STM32F4xx_HAL_Driver/Src/stm32f4xx_hal_i2c_ex.c ****   
 176:../STM32Cube_FW_F4_V1.4.0/Drivers/STM32F4xx_HAL_Driver/Src/stm32f4xx_hal_i2c_ex.c ****   /* Store the new register value */
 177:../STM32Cube_FW_F4_V1.4.0/Drivers/STM32F4xx_HAL_Driver/Src/stm32f4xx_hal_i2c_ex.c ****   hi2c->Instance->FLTR = tmpreg;
 270              		.loc 1 177 0
 271 0060 A4B2     		uxth	r4, r4	@ D.8214, tmp143
 272 0062 5C62     		str	r4, [r3, #36]	@ D.8214, _14->FLTR
 178:../STM32Cube_FW_F4_V1.4.0/Drivers/STM32F4xx_HAL_Driver/Src/stm32f4xx_hal_i2c_ex.c ****   
 179:../STM32Cube_FW_F4_V1.4.0/Drivers/STM32F4xx_HAL_Driver/Src/stm32f4xx_hal_i2c_ex.c ****   __HAL_I2C_ENABLE(hi2c); 
 273              		.loc 1 179 0
 274 0064 1A68     		ldr	r2, [r3]	@ D.8214, _14->CR1
ARM GAS  C:\cygwin\tmp\ccR8DGvd.s 			page 9


 275 0066 42F00102 		orr	r2, r2, #1	@ D.8214, D.8214,
 276 006a 1A60     		str	r2, [r3]	@ D.8214, _14->CR1
 180:../STM32Cube_FW_F4_V1.4.0/Drivers/STM32F4xx_HAL_Driver/Src/stm32f4xx_hal_i2c_ex.c ****   
 181:../STM32Cube_FW_F4_V1.4.0/Drivers/STM32F4xx_HAL_Driver/Src/stm32f4xx_hal_i2c_ex.c ****   hi2c->State = HAL_I2C_STATE_READY;
 277              		.loc 1 181 0
 278 006c 0123     		movs	r3, #1	@ tmp144,
 279 006e 85F83530 		strb	r3, [r5, #53]	@ tmp144, hi2c_6(D)->State
 182:../STM32Cube_FW_F4_V1.4.0/Drivers/STM32F4xx_HAL_Driver/Src/stm32f4xx_hal_i2c_ex.c ****   
 183:../STM32Cube_FW_F4_V1.4.0/Drivers/STM32F4xx_HAL_Driver/Src/stm32f4xx_hal_i2c_ex.c ****   return HAL_OK; 
 280              		.loc 1 183 0
 281 0072 0020     		movs	r0, #0	@ D.8211,
 282 0074 38BD     		pop	{r3, r4, r5, pc}	@
 283              	.LVL19:
 284              	.L18:
 159:../STM32Cube_FW_F4_V1.4.0/Drivers/STM32F4xx_HAL_Driver/Src/stm32f4xx_hal_i2c_ex.c ****   }
 285              		.loc 1 159 0
 286 0076 1846     		mov	r0, r3	@ D.8211, D.8211
 287              	.L16:
 184:../STM32Cube_FW_F4_V1.4.0/Drivers/STM32F4xx_HAL_Driver/Src/stm32f4xx_hal_i2c_ex.c **** }  
 288              		.loc 1 184 0
 289 0078 38BD     		pop	{r3, r4, r5, pc}	@
 290              	.LVL20:
 291              	.L20:
 292 007a 00BF     		.align	2
 293              	.L19:
 294 007c 00540040 		.word	1073763328
 295 0080 00000000 		.word	.LC0
 296              		.cfi_endproc
 297              	.LFE124:
 298              		.size	HAL_I2CEx_ConfigDigitalFilter, .-HAL_I2CEx_ConfigDigitalFilter
 299              		.section	.rodata.str1.1,"aMS",%progbits,1
 300              	.LC0:
 301 0000 2E2E2F53 		.ascii	"../STM32Cube_FW_F4_V1.4.0/Drivers/STM32F4xx_HAL_Dri"
 301      544D3332 
 301      43756265 
 301      5F46575F 
 301      46345F56 
 302 0033 7665722F 		.ascii	"ver/Src/stm32f4xx_hal_i2c_ex.c\000"
 302      5372632F 
 302      73746D33 
 302      32663478 
 302      785F6861 
 303              		.text
 304              	.Letext0:
 305              		.file 2 "c:\\program files\\gcc-arm-none-eabi-4_9-2014\\arm-none-eabi\\include\\machine\\_default_
 306              		.file 3 "c:\\program files\\gcc-arm-none-eabi-4_9-2014\\arm-none-eabi\\include\\stdint.h"
 307              		.file 4 "../STM32Cube_FW_F4_V1.4.0/Drivers/CMSIS/Device/ST/STM32F4xx/Include/stm32f437xx.h"
 308              		.file 5 "../STM32Cube_FW_F4_V1.4.0/Drivers/STM32F4xx_HAL_Driver/Inc/stm32f4xx_hal_def.h"
 309              		.file 6 "../STM32Cube_FW_F4_V1.4.0/Drivers/STM32F4xx_HAL_Driver/Inc/stm32f4xx_hal_dma.h"
 310              		.file 7 "../STM32Cube_FW_F4_V1.4.0/Drivers/STM32F4xx_HAL_Driver/Inc/stm32f4xx_hal_i2c.h"
 311              		.file 8 "../STM32Cube_FW_F4_V1.4.0/Drivers/CMSIS/Include/core_cm4.h"
 312              		.file 9 "Inc/stm32f4xx_hal_conf.h"