ARM GAS  C:\cygwin\tmp\cc7ot9iS.s 			page 1


   1              		.syntax unified
   2              		.cpu cortex-m4
   3              		.fpu softvfp
   4              		.eabi_attribute 20, 1	@ Tag_ABI_FP_denormal
   5              		.eabi_attribute 21, 1	@ Tag_ABI_FP_exceptions
   6              		.eabi_attribute 23, 3	@ Tag_ABI_FP_number_model
   7              		.eabi_attribute 24, 1	@ Tag_ABI_align8_needed
   8              		.eabi_attribute 25, 1	@ Tag_ABI_align8_preserved
   9              		.eabi_attribute 26, 1	@ Tag_ABI_enum_size
  10              		.eabi_attribute 30, 4	@ Tag_ABI_optimization_goals
  11              		.eabi_attribute 34, 1	@ Tag_CPU_unaligned_access
  12              		.eabi_attribute 18, 4	@ Tag_ABI_PCS_wchar_t
  13              		.file	"stm32f4xx_hal_dma_ex.c"
  14              	@ GNU C (GNU Tools for ARM Embedded Processors) version 4.9.3 20141119 (release) [ARM/embedded-4_9-
  15              	@	compiled by GNU C version 4.7.4, GMP version 4.3.2, MPFR version 2.4.2, MPC version 0.8.1
  16              	@ GGC heuristics: --param ggc-min-expand=100 --param ggc-min-heapsize=131072
  17              	@ options passed:  -I . -I Inc -I gui -I emWin -I emWin/config
  18              	@ -I freemodbus-v1.5.0/port -I freemodbus-v1.5.0/modbus/include
  19              	@ -I freemodbus-v1.5.0/modbus/ascii -I freemodbus-v1.5.0/modbus/rtu
  20              	@ -I ../STM32Cube_FW_F4_V1.4.0/Drivers/CMSIS/Include
  21              	@ -I ../STM32Cube_FW_F4_V1.4.0/Drivers/CMSIS/Device/ST/STM32F4xx/Include
  22              	@ -I ../STM32Cube_FW_F4_V1.4.0/Drivers/STM32F4xx_HAL_Driver/Inc
  23              	@ -I ../STM32Cube_FW_F4_V1.4.0/Drivers/CMSIS/Include
  24              	@ -I ../STM32Cube_FW_F4_V1.4.0/Middlewares/ST/STemWin/inc
  25              	@ -I ../STM32Cube_FW_F4_V1.4.0/Middlewares/Third_Party/FatFs/src
  26              	@ -I ../STM32Cube_FW_F4_V1.4.0/Middlewares/Third_Party/FatFs/src/drivers/sd
  27              	@ -I ./drivers/display -imultilib armv7e-m
  28              	@ -iprefix c:\program files\gcc-arm-none-eabi-4_9-2014\bin\../lib/gcc/arm-none-eabi/4.9.3/
  29              	@ -isysroot c:\program files\gcc-arm-none-eabi-4_9-2014\bin\../arm-none-eabi
  30              	@ -MD out/stm32f4xx_hal_dma_ex.d -MF out/stm32f4xx_hal_dma_ex.d -MP
  31              	@ -MQ out/stm32f4xx_hal_dma_ex.o -D__USES_INITFINI__ -D USE_HAL_DRIVER
  32              	@ -D STM32F4XX -D HSE_VALUE=25000000 -D STM32F437xx -D USE_FULL_ASSERT
  33              	@ -D __GNUC__ -D __VFP_FP__ -D ARM_MATH_CM4 -D LOG_INFO
  34              	@ ../STM32Cube_FW_F4_V1.4.0/Drivers/STM32F4xx_HAL_Driver/Src/stm32f4xx_hal_dma_ex.c
  35              	@ -mcpu=cortex-m4 -mthumb -auxbase-strip out/stm32f4xx_hal_dma_ex.o -g
  36              	@ -ggdb3 -Os -Os -Wall -Wstrict-prototypes -Wextra -std=gnu90
  37              	@ -ffunction-sections -fdata-sections -fverbose-asm
  38              	@ options enabled:  -faggressive-loop-optimizations -fauto-inc-dec
  39              	@ -fbranch-count-reg -fcaller-saves -fcombine-stack-adjustments -fcommon
  40              	@ -fcompare-elim -fcprop-registers -fcrossjumping -fcse-follow-jumps
  41              	@ -fdata-sections -fdefer-pop -fdelete-null-pointer-checks -fdevirtualize
  42              	@ -fdevirtualize-speculatively -fdwarf2-cfi-asm -fearly-inlining
  43              	@ -feliminate-unused-debug-types -fexpensive-optimizations
  44              	@ -fforward-propagate -ffunction-cse -ffunction-sections -fgcse -fgcse-lm
  45              	@ -fgnu-runtime -fgnu-unique -fguess-branch-probability
  46              	@ -fhoist-adjacent-loads -fident -fif-conversion -fif-conversion2
  47              	@ -findirect-inlining -finline -finline-atomics -finline-functions
  48              	@ -finline-functions-called-once -finline-small-functions -fipa-cp
  49              	@ -fipa-profile -fipa-pure-const -fipa-reference -fipa-sra
  50              	@ -fira-hoist-pressure -fira-share-save-slots -fira-share-spill-slots
  51              	@ -fisolate-erroneous-paths-dereference -fivopts -fkeep-static-consts
  52              	@ -fleading-underscore -fmath-errno -fmerge-constants -fmerge-debug-strings
  53              	@ -fomit-frame-pointer -foptimize-sibling-calls -fpartial-inlining
  54              	@ -fpeephole -fpeephole2 -fprefetch-loop-arrays -freg-struct-return
  55              	@ -freorder-blocks -freorder-functions -frerun-cse-after-loop
  56              	@ -fsched-critical-path-heuristic -fsched-dep-count-heuristic
  57              	@ -fsched-group-heuristic -fsched-interblock -fsched-last-insn-heuristic
ARM GAS  C:\cygwin\tmp\cc7ot9iS.s 			page 2


  58              	@ -fsched-pressure -fsched-rank-heuristic -fsched-spec
  59              	@ -fsched-spec-insn-heuristic -fsched-stalled-insns-dep -fschedule-insns2
  60              	@ -fsection-anchors -fshow-column -fsigned-zeros -fsplit-ivs-in-unroller
  61              	@ -fsplit-wide-types -fstrict-aliasing -fstrict-overflow
  62              	@ -fstrict-volatile-bitfields -fsync-libcalls -fthread-jumps
  63              	@ -ftoplevel-reorder -ftrapping-math -ftree-bit-ccp -ftree-builtin-call-dce
  64              	@ -ftree-ccp -ftree-ch -ftree-coalesce-vars -ftree-copy-prop
  65              	@ -ftree-copyrename -ftree-cselim -ftree-dce -ftree-dominator-opts
  66              	@ -ftree-dse -ftree-forwprop -ftree-fre -ftree-loop-if-convert
  67              	@ -ftree-loop-im -ftree-loop-ivcanon -ftree-loop-optimize
  68              	@ -ftree-parallelize-loops= -ftree-phiprop -ftree-pre -ftree-pta
  69              	@ -ftree-reassoc -ftree-scev-cprop -ftree-sink -ftree-slsr -ftree-sra
  70              	@ -ftree-switch-conversion -ftree-tail-merge -ftree-ter -ftree-vrp
  71              	@ -funit-at-a-time -fvar-tracking -fvar-tracking-assignments -fverbose-asm
  72              	@ -fzero-initialized-in-bss -mlittle-endian -mlra
  73              	@ -mpic-data-is-text-relative -msched-prolog -mthumb -munaligned-access
  74              	@ -mvectorize-with-neon-quad
  75              	
  76              		.text
  77              	.Ltext0:
  78              		.cfi_sections	.debug_frame
  79              		.section	.text.HAL_DMAEx_MultiBufferStart,"ax",%progbits
  80              		.align	1
  81              		.global	HAL_DMAEx_MultiBufferStart
  82              		.thumb
  83              		.thumb_func
  84              		.type	HAL_DMAEx_MultiBufferStart, %function
  85              	HAL_DMAEx_MultiBufferStart:
  86              	.LFB123:
  87              		.file 1 "../STM32Cube_FW_F4_V1.4.0/Drivers/STM32F4xx_HAL_Driver/Src/stm32f4xx_hal_dma_ex.c"
   1:../STM32Cube_FW_F4_V1.4.0/Drivers/STM32F4xx_HAL_Driver/Src/stm32f4xx_hal_dma_ex.c **** /**
   2:../STM32Cube_FW_F4_V1.4.0/Drivers/STM32F4xx_HAL_Driver/Src/stm32f4xx_hal_dma_ex.c ****   ******************************************************************************
   3:../STM32Cube_FW_F4_V1.4.0/Drivers/STM32F4xx_HAL_Driver/Src/stm32f4xx_hal_dma_ex.c ****   * @file    stm32f4xx_hal_dma_ex.c
   4:../STM32Cube_FW_F4_V1.4.0/Drivers/STM32F4xx_HAL_Driver/Src/stm32f4xx_hal_dma_ex.c ****   * @author  MCD Application Team
   5:../STM32Cube_FW_F4_V1.4.0/Drivers/STM32F4xx_HAL_Driver/Src/stm32f4xx_hal_dma_ex.c ****   * @version V1.2.0
   6:../STM32Cube_FW_F4_V1.4.0/Drivers/STM32F4xx_HAL_Driver/Src/stm32f4xx_hal_dma_ex.c ****   * @date    26-December-2014
   7:../STM32Cube_FW_F4_V1.4.0/Drivers/STM32F4xx_HAL_Driver/Src/stm32f4xx_hal_dma_ex.c ****   * @brief   DMA Extension HAL module driver
   8:../STM32Cube_FW_F4_V1.4.0/Drivers/STM32F4xx_HAL_Driver/Src/stm32f4xx_hal_dma_ex.c ****   *         This file provides firmware functions to manage the following 
   9:../STM32Cube_FW_F4_V1.4.0/Drivers/STM32F4xx_HAL_Driver/Src/stm32f4xx_hal_dma_ex.c ****   *         functionalities of the DMA Extension peripheral:
  10:../STM32Cube_FW_F4_V1.4.0/Drivers/STM32F4xx_HAL_Driver/Src/stm32f4xx_hal_dma_ex.c ****   *           + Extended features functions
  11:../STM32Cube_FW_F4_V1.4.0/Drivers/STM32F4xx_HAL_Driver/Src/stm32f4xx_hal_dma_ex.c ****   *
  12:../STM32Cube_FW_F4_V1.4.0/Drivers/STM32F4xx_HAL_Driver/Src/stm32f4xx_hal_dma_ex.c ****   @verbatim
  13:../STM32Cube_FW_F4_V1.4.0/Drivers/STM32F4xx_HAL_Driver/Src/stm32f4xx_hal_dma_ex.c ****   ==============================================================================
  14:../STM32Cube_FW_F4_V1.4.0/Drivers/STM32F4xx_HAL_Driver/Src/stm32f4xx_hal_dma_ex.c ****                         ##### How to use this driver #####
  15:../STM32Cube_FW_F4_V1.4.0/Drivers/STM32F4xx_HAL_Driver/Src/stm32f4xx_hal_dma_ex.c ****   ==============================================================================
  16:../STM32Cube_FW_F4_V1.4.0/Drivers/STM32F4xx_HAL_Driver/Src/stm32f4xx_hal_dma_ex.c ****   [..]
  17:../STM32Cube_FW_F4_V1.4.0/Drivers/STM32F4xx_HAL_Driver/Src/stm32f4xx_hal_dma_ex.c ****   The DMA Extension HAL driver can be used as follows:
  18:../STM32Cube_FW_F4_V1.4.0/Drivers/STM32F4xx_HAL_Driver/Src/stm32f4xx_hal_dma_ex.c ****    (#) Start a multi buffer transfer using the HAL_DMA_MultiBufferStart() function
  19:../STM32Cube_FW_F4_V1.4.0/Drivers/STM32F4xx_HAL_Driver/Src/stm32f4xx_hal_dma_ex.c ****        for polling mode or HAL_DMA_MultiBufferStart_IT() for interrupt mode.
  20:../STM32Cube_FW_F4_V1.4.0/Drivers/STM32F4xx_HAL_Driver/Src/stm32f4xx_hal_dma_ex.c ****                    
  21:../STM32Cube_FW_F4_V1.4.0/Drivers/STM32F4xx_HAL_Driver/Src/stm32f4xx_hal_dma_ex.c ****      -@-  In Memory-to-Memory transfer mode, Multi (Double) Buffer mode is not allowed.
  22:../STM32Cube_FW_F4_V1.4.0/Drivers/STM32F4xx_HAL_Driver/Src/stm32f4xx_hal_dma_ex.c ****      -@-  When Multi (Double) Buffer mode is enabled the, transfer is circular by default.
  23:../STM32Cube_FW_F4_V1.4.0/Drivers/STM32F4xx_HAL_Driver/Src/stm32f4xx_hal_dma_ex.c ****      -@-  In Multi (Double) buffer mode, it is possible to update the base address for 
  24:../STM32Cube_FW_F4_V1.4.0/Drivers/STM32F4xx_HAL_Driver/Src/stm32f4xx_hal_dma_ex.c ****           the AHB memory port on the fly (DMA_SxM0AR or DMA_SxM1AR) when the stream is enabled. 
  25:../STM32Cube_FW_F4_V1.4.0/Drivers/STM32F4xx_HAL_Driver/Src/stm32f4xx_hal_dma_ex.c ****   
  26:../STM32Cube_FW_F4_V1.4.0/Drivers/STM32F4xx_HAL_Driver/Src/stm32f4xx_hal_dma_ex.c ****   @endverbatim
  27:../STM32Cube_FW_F4_V1.4.0/Drivers/STM32F4xx_HAL_Driver/Src/stm32f4xx_hal_dma_ex.c ****   ******************************************************************************
ARM GAS  C:\cygwin\tmp\cc7ot9iS.s 			page 3


  28:../STM32Cube_FW_F4_V1.4.0/Drivers/STM32F4xx_HAL_Driver/Src/stm32f4xx_hal_dma_ex.c ****   * @attention
  29:../STM32Cube_FW_F4_V1.4.0/Drivers/STM32F4xx_HAL_Driver/Src/stm32f4xx_hal_dma_ex.c ****   *
  30:../STM32Cube_FW_F4_V1.4.0/Drivers/STM32F4xx_HAL_Driver/Src/stm32f4xx_hal_dma_ex.c ****   * <h2><center>&copy; COPYRIGHT(c) 2014 STMicroelectronics</center></h2>
  31:../STM32Cube_FW_F4_V1.4.0/Drivers/STM32F4xx_HAL_Driver/Src/stm32f4xx_hal_dma_ex.c ****   *
  32:../STM32Cube_FW_F4_V1.4.0/Drivers/STM32F4xx_HAL_Driver/Src/stm32f4xx_hal_dma_ex.c ****   * Redistribution and use in source and binary forms, with or without modification,
  33:../STM32Cube_FW_F4_V1.4.0/Drivers/STM32F4xx_HAL_Driver/Src/stm32f4xx_hal_dma_ex.c ****   * are permitted provided that the following conditions are met:
  34:../STM32Cube_FW_F4_V1.4.0/Drivers/STM32F4xx_HAL_Driver/Src/stm32f4xx_hal_dma_ex.c ****   *   1. Redistributions of source code must retain the above copyright notice,
  35:../STM32Cube_FW_F4_V1.4.0/Drivers/STM32F4xx_HAL_Driver/Src/stm32f4xx_hal_dma_ex.c ****   *      this list of conditions and the following disclaimer.
  36:../STM32Cube_FW_F4_V1.4.0/Drivers/STM32F4xx_HAL_Driver/Src/stm32f4xx_hal_dma_ex.c ****   *   2. Redistributions in binary form must reproduce the above copyright notice,
  37:../STM32Cube_FW_F4_V1.4.0/Drivers/STM32F4xx_HAL_Driver/Src/stm32f4xx_hal_dma_ex.c ****   *      this list of conditions and the following disclaimer in the documentation
  38:../STM32Cube_FW_F4_V1.4.0/Drivers/STM32F4xx_HAL_Driver/Src/stm32f4xx_hal_dma_ex.c ****   *      and/or other materials provided with the distribution.
  39:../STM32Cube_FW_F4_V1.4.0/Drivers/STM32F4xx_HAL_Driver/Src/stm32f4xx_hal_dma_ex.c ****   *   3. Neither the name of STMicroelectronics nor the names of its contributors
  40:../STM32Cube_FW_F4_V1.4.0/Drivers/STM32F4xx_HAL_Driver/Src/stm32f4xx_hal_dma_ex.c ****   *      may be used to endorse or promote products derived from this software
  41:../STM32Cube_FW_F4_V1.4.0/Drivers/STM32F4xx_HAL_Driver/Src/stm32f4xx_hal_dma_ex.c ****   *      without specific prior written permission.
  42:../STM32Cube_FW_F4_V1.4.0/Drivers/STM32F4xx_HAL_Driver/Src/stm32f4xx_hal_dma_ex.c ****   *
  43:../STM32Cube_FW_F4_V1.4.0/Drivers/STM32F4xx_HAL_Driver/Src/stm32f4xx_hal_dma_ex.c ****   * THIS SOFTWARE IS PROVIDED BY THE COPYRIGHT HOLDERS AND CONTRIBUTORS "AS IS"
  44:../STM32Cube_FW_F4_V1.4.0/Drivers/STM32F4xx_HAL_Driver/Src/stm32f4xx_hal_dma_ex.c ****   * AND ANY EXPRESS OR IMPLIED WARRANTIES, INCLUDING, BUT NOT LIMITED TO, THE
  45:../STM32Cube_FW_F4_V1.4.0/Drivers/STM32F4xx_HAL_Driver/Src/stm32f4xx_hal_dma_ex.c ****   * IMPLIED WARRANTIES OF MERCHANTABILITY AND FITNESS FOR A PARTICULAR PURPOSE ARE
  46:../STM32Cube_FW_F4_V1.4.0/Drivers/STM32F4xx_HAL_Driver/Src/stm32f4xx_hal_dma_ex.c ****   * DISCLAIMED. IN NO EVENT SHALL THE COPYRIGHT HOLDER OR CONTRIBUTORS BE LIABLE
  47:../STM32Cube_FW_F4_V1.4.0/Drivers/STM32F4xx_HAL_Driver/Src/stm32f4xx_hal_dma_ex.c ****   * FOR ANY DIRECT, INDIRECT, INCIDENTAL, SPECIAL, EXEMPLARY, OR CONSEQUENTIAL
  48:../STM32Cube_FW_F4_V1.4.0/Drivers/STM32F4xx_HAL_Driver/Src/stm32f4xx_hal_dma_ex.c ****   * DAMAGES (INCLUDING, BUT NOT LIMITED TO, PROCUREMENT OF SUBSTITUTE GOODS OR
  49:../STM32Cube_FW_F4_V1.4.0/Drivers/STM32F4xx_HAL_Driver/Src/stm32f4xx_hal_dma_ex.c ****   * SERVICES; LOSS OF USE, DATA, OR PROFITS; OR BUSINESS INTERRUPTION) HOWEVER
  50:../STM32Cube_FW_F4_V1.4.0/Drivers/STM32F4xx_HAL_Driver/Src/stm32f4xx_hal_dma_ex.c ****   * CAUSED AND ON ANY THEORY OF LIABILITY, WHETHER IN CONTRACT, STRICT LIABILITY,
  51:../STM32Cube_FW_F4_V1.4.0/Drivers/STM32F4xx_HAL_Driver/Src/stm32f4xx_hal_dma_ex.c ****   * OR TORT (INCLUDING NEGLIGENCE OR OTHERWISE) ARISING IN ANY WAY OUT OF THE USE
  52:../STM32Cube_FW_F4_V1.4.0/Drivers/STM32F4xx_HAL_Driver/Src/stm32f4xx_hal_dma_ex.c ****   * OF THIS SOFTWARE, EVEN IF ADVISED OF THE POSSIBILITY OF SUCH DAMAGE.
  53:../STM32Cube_FW_F4_V1.4.0/Drivers/STM32F4xx_HAL_Driver/Src/stm32f4xx_hal_dma_ex.c ****   *
  54:../STM32Cube_FW_F4_V1.4.0/Drivers/STM32F4xx_HAL_Driver/Src/stm32f4xx_hal_dma_ex.c ****   ******************************************************************************
  55:../STM32Cube_FW_F4_V1.4.0/Drivers/STM32F4xx_HAL_Driver/Src/stm32f4xx_hal_dma_ex.c ****   */
  56:../STM32Cube_FW_F4_V1.4.0/Drivers/STM32F4xx_HAL_Driver/Src/stm32f4xx_hal_dma_ex.c **** 
  57:../STM32Cube_FW_F4_V1.4.0/Drivers/STM32F4xx_HAL_Driver/Src/stm32f4xx_hal_dma_ex.c **** /* Includes ------------------------------------------------------------------*/
  58:../STM32Cube_FW_F4_V1.4.0/Drivers/STM32F4xx_HAL_Driver/Src/stm32f4xx_hal_dma_ex.c **** #include "stm32f4xx_hal.h"
  59:../STM32Cube_FW_F4_V1.4.0/Drivers/STM32F4xx_HAL_Driver/Src/stm32f4xx_hal_dma_ex.c **** 
  60:../STM32Cube_FW_F4_V1.4.0/Drivers/STM32F4xx_HAL_Driver/Src/stm32f4xx_hal_dma_ex.c **** /** @addtogroup STM32F4xx_HAL_Driver
  61:../STM32Cube_FW_F4_V1.4.0/Drivers/STM32F4xx_HAL_Driver/Src/stm32f4xx_hal_dma_ex.c ****   * @{
  62:../STM32Cube_FW_F4_V1.4.0/Drivers/STM32F4xx_HAL_Driver/Src/stm32f4xx_hal_dma_ex.c ****   */
  63:../STM32Cube_FW_F4_V1.4.0/Drivers/STM32F4xx_HAL_Driver/Src/stm32f4xx_hal_dma_ex.c **** 
  64:../STM32Cube_FW_F4_V1.4.0/Drivers/STM32F4xx_HAL_Driver/Src/stm32f4xx_hal_dma_ex.c **** /** @defgroup DMAEx DMAEx
  65:../STM32Cube_FW_F4_V1.4.0/Drivers/STM32F4xx_HAL_Driver/Src/stm32f4xx_hal_dma_ex.c ****   * @brief DMA Extended HAL module driver
  66:../STM32Cube_FW_F4_V1.4.0/Drivers/STM32F4xx_HAL_Driver/Src/stm32f4xx_hal_dma_ex.c ****   * @{
  67:../STM32Cube_FW_F4_V1.4.0/Drivers/STM32F4xx_HAL_Driver/Src/stm32f4xx_hal_dma_ex.c ****   */
  68:../STM32Cube_FW_F4_V1.4.0/Drivers/STM32F4xx_HAL_Driver/Src/stm32f4xx_hal_dma_ex.c **** 
  69:../STM32Cube_FW_F4_V1.4.0/Drivers/STM32F4xx_HAL_Driver/Src/stm32f4xx_hal_dma_ex.c **** #ifdef HAL_DMA_MODULE_ENABLED
  70:../STM32Cube_FW_F4_V1.4.0/Drivers/STM32F4xx_HAL_Driver/Src/stm32f4xx_hal_dma_ex.c **** 
  71:../STM32Cube_FW_F4_V1.4.0/Drivers/STM32F4xx_HAL_Driver/Src/stm32f4xx_hal_dma_ex.c **** /* Private types -------------------------------------------------------------*/
  72:../STM32Cube_FW_F4_V1.4.0/Drivers/STM32F4xx_HAL_Driver/Src/stm32f4xx_hal_dma_ex.c **** /* Private variables ---------------------------------------------------------*/
  73:../STM32Cube_FW_F4_V1.4.0/Drivers/STM32F4xx_HAL_Driver/Src/stm32f4xx_hal_dma_ex.c **** /* Private Constants ---------------------------------------------------------*/
  74:../STM32Cube_FW_F4_V1.4.0/Drivers/STM32F4xx_HAL_Driver/Src/stm32f4xx_hal_dma_ex.c **** /* Private macros ------------------------------------------------------------*/
  75:../STM32Cube_FW_F4_V1.4.0/Drivers/STM32F4xx_HAL_Driver/Src/stm32f4xx_hal_dma_ex.c **** /* Private functions ---------------------------------------------------------*/
  76:../STM32Cube_FW_F4_V1.4.0/Drivers/STM32F4xx_HAL_Driver/Src/stm32f4xx_hal_dma_ex.c **** /** @addtogroup DMAEx_Private_Functions
  77:../STM32Cube_FW_F4_V1.4.0/Drivers/STM32F4xx_HAL_Driver/Src/stm32f4xx_hal_dma_ex.c ****   * @{
  78:../STM32Cube_FW_F4_V1.4.0/Drivers/STM32F4xx_HAL_Driver/Src/stm32f4xx_hal_dma_ex.c ****   */
  79:../STM32Cube_FW_F4_V1.4.0/Drivers/STM32F4xx_HAL_Driver/Src/stm32f4xx_hal_dma_ex.c **** static void DMA_MultiBufferSetConfig(DMA_HandleTypeDef *hdma, uint32_t SrcAddress, uint32_t DstAddr
  80:../STM32Cube_FW_F4_V1.4.0/Drivers/STM32F4xx_HAL_Driver/Src/stm32f4xx_hal_dma_ex.c **** /**
  81:../STM32Cube_FW_F4_V1.4.0/Drivers/STM32F4xx_HAL_Driver/Src/stm32f4xx_hal_dma_ex.c ****   * @}
  82:../STM32Cube_FW_F4_V1.4.0/Drivers/STM32F4xx_HAL_Driver/Src/stm32f4xx_hal_dma_ex.c ****   */
  83:../STM32Cube_FW_F4_V1.4.0/Drivers/STM32F4xx_HAL_Driver/Src/stm32f4xx_hal_dma_ex.c **** 
  84:../STM32Cube_FW_F4_V1.4.0/Drivers/STM32F4xx_HAL_Driver/Src/stm32f4xx_hal_dma_ex.c **** /* Exported functions ---------------------------------------------------------*/
ARM GAS  C:\cygwin\tmp\cc7ot9iS.s 			page 4


  85:../STM32Cube_FW_F4_V1.4.0/Drivers/STM32F4xx_HAL_Driver/Src/stm32f4xx_hal_dma_ex.c **** 
  86:../STM32Cube_FW_F4_V1.4.0/Drivers/STM32F4xx_HAL_Driver/Src/stm32f4xx_hal_dma_ex.c **** /** @addtogroup DMAEx_Exported_Functions
  87:../STM32Cube_FW_F4_V1.4.0/Drivers/STM32F4xx_HAL_Driver/Src/stm32f4xx_hal_dma_ex.c ****   * @{
  88:../STM32Cube_FW_F4_V1.4.0/Drivers/STM32F4xx_HAL_Driver/Src/stm32f4xx_hal_dma_ex.c ****   */
  89:../STM32Cube_FW_F4_V1.4.0/Drivers/STM32F4xx_HAL_Driver/Src/stm32f4xx_hal_dma_ex.c **** 
  90:../STM32Cube_FW_F4_V1.4.0/Drivers/STM32F4xx_HAL_Driver/Src/stm32f4xx_hal_dma_ex.c **** 
  91:../STM32Cube_FW_F4_V1.4.0/Drivers/STM32F4xx_HAL_Driver/Src/stm32f4xx_hal_dma_ex.c **** /** @addtogroup DMAEx_Exported_Functions_Group1
  92:../STM32Cube_FW_F4_V1.4.0/Drivers/STM32F4xx_HAL_Driver/Src/stm32f4xx_hal_dma_ex.c ****   *
  93:../STM32Cube_FW_F4_V1.4.0/Drivers/STM32F4xx_HAL_Driver/Src/stm32f4xx_hal_dma_ex.c **** @verbatim   
  94:../STM32Cube_FW_F4_V1.4.0/Drivers/STM32F4xx_HAL_Driver/Src/stm32f4xx_hal_dma_ex.c ****  ===============================================================================
  95:../STM32Cube_FW_F4_V1.4.0/Drivers/STM32F4xx_HAL_Driver/Src/stm32f4xx_hal_dma_ex.c ****                 #####  Extended features functions  #####
  96:../STM32Cube_FW_F4_V1.4.0/Drivers/STM32F4xx_HAL_Driver/Src/stm32f4xx_hal_dma_ex.c ****  ===============================================================================  
  97:../STM32Cube_FW_F4_V1.4.0/Drivers/STM32F4xx_HAL_Driver/Src/stm32f4xx_hal_dma_ex.c ****     [..]  This section provides functions allowing to:
  98:../STM32Cube_FW_F4_V1.4.0/Drivers/STM32F4xx_HAL_Driver/Src/stm32f4xx_hal_dma_ex.c ****       (+) Configure the source, destination address and data length and 
  99:../STM32Cube_FW_F4_V1.4.0/Drivers/STM32F4xx_HAL_Driver/Src/stm32f4xx_hal_dma_ex.c ****           Start MultiBuffer DMA transfer
 100:../STM32Cube_FW_F4_V1.4.0/Drivers/STM32F4xx_HAL_Driver/Src/stm32f4xx_hal_dma_ex.c ****       (+) Configure the source, destination address and data length and 
 101:../STM32Cube_FW_F4_V1.4.0/Drivers/STM32F4xx_HAL_Driver/Src/stm32f4xx_hal_dma_ex.c ****           Start MultiBuffer DMA transfer with interrupt
 102:../STM32Cube_FW_F4_V1.4.0/Drivers/STM32F4xx_HAL_Driver/Src/stm32f4xx_hal_dma_ex.c ****       (+) Change on the fly the memory0 or memory1 address.
 103:../STM32Cube_FW_F4_V1.4.0/Drivers/STM32F4xx_HAL_Driver/Src/stm32f4xx_hal_dma_ex.c ****       
 104:../STM32Cube_FW_F4_V1.4.0/Drivers/STM32F4xx_HAL_Driver/Src/stm32f4xx_hal_dma_ex.c **** @endverbatim
 105:../STM32Cube_FW_F4_V1.4.0/Drivers/STM32F4xx_HAL_Driver/Src/stm32f4xx_hal_dma_ex.c ****   * @{
 106:../STM32Cube_FW_F4_V1.4.0/Drivers/STM32F4xx_HAL_Driver/Src/stm32f4xx_hal_dma_ex.c ****   */
 107:../STM32Cube_FW_F4_V1.4.0/Drivers/STM32F4xx_HAL_Driver/Src/stm32f4xx_hal_dma_ex.c **** 
 108:../STM32Cube_FW_F4_V1.4.0/Drivers/STM32F4xx_HAL_Driver/Src/stm32f4xx_hal_dma_ex.c **** 
 109:../STM32Cube_FW_F4_V1.4.0/Drivers/STM32F4xx_HAL_Driver/Src/stm32f4xx_hal_dma_ex.c **** /**
 110:../STM32Cube_FW_F4_V1.4.0/Drivers/STM32F4xx_HAL_Driver/Src/stm32f4xx_hal_dma_ex.c ****   * @brief  Starts the multi_buffer DMA Transfer.
 111:../STM32Cube_FW_F4_V1.4.0/Drivers/STM32F4xx_HAL_Driver/Src/stm32f4xx_hal_dma_ex.c ****   * @param  hdma      : pointer to a DMA_HandleTypeDef structure that contains
 112:../STM32Cube_FW_F4_V1.4.0/Drivers/STM32F4xx_HAL_Driver/Src/stm32f4xx_hal_dma_ex.c ****   *                     the configuration information for the specified DMA Stream.  
 113:../STM32Cube_FW_F4_V1.4.0/Drivers/STM32F4xx_HAL_Driver/Src/stm32f4xx_hal_dma_ex.c ****   * @param  SrcAddress: The source memory Buffer address
 114:../STM32Cube_FW_F4_V1.4.0/Drivers/STM32F4xx_HAL_Driver/Src/stm32f4xx_hal_dma_ex.c ****   * @param  DstAddress: The destination memory Buffer address
 115:../STM32Cube_FW_F4_V1.4.0/Drivers/STM32F4xx_HAL_Driver/Src/stm32f4xx_hal_dma_ex.c ****   * @param  SecondMemAddress: The second memory Buffer address in case of multi buffer Transfer  
 116:../STM32Cube_FW_F4_V1.4.0/Drivers/STM32F4xx_HAL_Driver/Src/stm32f4xx_hal_dma_ex.c ****   * @param  DataLength: The length of data to be transferred from source to destination
 117:../STM32Cube_FW_F4_V1.4.0/Drivers/STM32F4xx_HAL_Driver/Src/stm32f4xx_hal_dma_ex.c ****   * @retval HAL status
 118:../STM32Cube_FW_F4_V1.4.0/Drivers/STM32F4xx_HAL_Driver/Src/stm32f4xx_hal_dma_ex.c ****   */
 119:../STM32Cube_FW_F4_V1.4.0/Drivers/STM32F4xx_HAL_Driver/Src/stm32f4xx_hal_dma_ex.c **** HAL_StatusTypeDef HAL_DMAEx_MultiBufferStart(DMA_HandleTypeDef *hdma, uint32_t SrcAddress, uint32_t
 120:../STM32Cube_FW_F4_V1.4.0/Drivers/STM32F4xx_HAL_Driver/Src/stm32f4xx_hal_dma_ex.c **** {
  88              		.loc 1 120 0
  89              		.cfi_startproc
  90              		@ args = 4, pretend = 0, frame = 0
  91              		@ frame_needed = 0, uses_anonymous_args = 0
  92              	.LVL0:
  93 0000 2DE9F041 		push	{r4, r5, r6, r7, r8, lr}	@
  94              		.cfi_def_cfa_offset 24
  95              		.cfi_offset 4, -24
  96              		.cfi_offset 5, -20
  97              		.cfi_offset 6, -16
  98              		.cfi_offset 7, -12
  99              		.cfi_offset 8, -8
 100              		.cfi_offset 14, -4
 101              		.loc 1 120 0
 102 0004 9846     		mov	r8, r3	@ SecondMemAddress, SecondMemAddress
 121:../STM32Cube_FW_F4_V1.4.0/Drivers/STM32F4xx_HAL_Driver/Src/stm32f4xx_hal_dma_ex.c ****   /* Process Locked */
 122:../STM32Cube_FW_F4_V1.4.0/Drivers/STM32F4xx_HAL_Driver/Src/stm32f4xx_hal_dma_ex.c ****   __HAL_LOCK(hdma);
 103              		.loc 1 122 0
 104 0006 90F83430 		ldrb	r3, [r0, #52]	@ zero_extendqisi2	@ hdma_6(D)->Lock, hdma_6(D)->Lock
 105              	.LVL1:
 120:../STM32Cube_FW_F4_V1.4.0/Drivers/STM32F4xx_HAL_Driver/Src/stm32f4xx_hal_dma_ex.c ****   /* Process Locked */
ARM GAS  C:\cygwin\tmp\cc7ot9iS.s 			page 5


 106              		.loc 1 120 0
 107 000a 069E     		ldr	r6, [sp, #24]	@ DataLength, DataLength
 108              		.loc 1 122 0
 109 000c 012B     		cmp	r3, #1	@ hdma_6(D)->Lock,
 120:../STM32Cube_FW_F4_V1.4.0/Drivers/STM32F4xx_HAL_Driver/Src/stm32f4xx_hal_dma_ex.c ****   /* Process Locked */
 110              		.loc 1 120 0
 111 000e 0446     		mov	r4, r0	@ hdma, hdma
 112 0010 0F46     		mov	r7, r1	@ SrcAddress, SrcAddress
 113 0012 1546     		mov	r5, r2	@ DstAddress, DstAddress
 114              		.loc 1 122 0
 115 0014 31D0     		beq	.L8	@,
 116              		.loc 1 122 0 is_stmt 0 discriminator 2
 117 0016 0123     		movs	r3, #1	@ tmp133,
 118 0018 80F83430 		strb	r3, [r0, #52]	@ tmp133, hdma_6(D)->Lock
 123:../STM32Cube_FW_F4_V1.4.0/Drivers/STM32F4xx_HAL_Driver/Src/stm32f4xx_hal_dma_ex.c **** 
 124:../STM32Cube_FW_F4_V1.4.0/Drivers/STM32F4xx_HAL_Driver/Src/stm32f4xx_hal_dma_ex.c ****   /* Current memory buffer used is Memory 0 */
 125:../STM32Cube_FW_F4_V1.4.0/Drivers/STM32F4xx_HAL_Driver/Src/stm32f4xx_hal_dma_ex.c ****   if((hdma->Instance->CR & DMA_SxCR_CT) == 0)
 119              		.loc 1 125 0 is_stmt 1 discriminator 2
 120 001c 0368     		ldr	r3, [r0]	@ D.8251, hdma_6(D)->Instance
 121 001e 1A68     		ldr	r2, [r3]	@ D.8252, _9->CR
 122              	.LVL2:
 123 0020 1203     		lsls	r2, r2, #12	@, D.8252,
 124 0022 01D4     		bmi	.L3	@,
 126:../STM32Cube_FW_F4_V1.4.0/Drivers/STM32F4xx_HAL_Driver/Src/stm32f4xx_hal_dma_ex.c ****   {
 127:../STM32Cube_FW_F4_V1.4.0/Drivers/STM32F4xx_HAL_Driver/Src/stm32f4xx_hal_dma_ex.c ****     hdma->State = HAL_DMA_STATE_BUSY_MEM0;
 125              		.loc 1 127 0
 126 0024 1223     		movs	r3, #18	@ tmp136,
 127 0026 03E0     		b	.L12	@
 128              	.L3:
 128:../STM32Cube_FW_F4_V1.4.0/Drivers/STM32F4xx_HAL_Driver/Src/stm32f4xx_hal_dma_ex.c ****   }
 129:../STM32Cube_FW_F4_V1.4.0/Drivers/STM32F4xx_HAL_Driver/Src/stm32f4xx_hal_dma_ex.c ****   /* Current memory buffer used is Memory 1 */
 130:../STM32Cube_FW_F4_V1.4.0/Drivers/STM32F4xx_HAL_Driver/Src/stm32f4xx_hal_dma_ex.c ****   else if((hdma->Instance->CR & DMA_SxCR_CT) != 0)
 129              		.loc 1 130 0
 130 0028 1B68     		ldr	r3, [r3]	@ D.8252, _9->CR
 131 002a 1B03     		lsls	r3, r3, #12	@, D.8252,
 132 002c 02D5     		bpl	.L4	@,
 131:../STM32Cube_FW_F4_V1.4.0/Drivers/STM32F4xx_HAL_Driver/Src/stm32f4xx_hal_dma_ex.c ****   {
 132:../STM32Cube_FW_F4_V1.4.0/Drivers/STM32F4xx_HAL_Driver/Src/stm32f4xx_hal_dma_ex.c ****     hdma->State = HAL_DMA_STATE_BUSY_MEM1;
 133              		.loc 1 132 0
 134 002e 2223     		movs	r3, #34	@ tmp139,
 135              	.L12:
 136 0030 84F83530 		strb	r3, [r4, #53]	@ tmp139,
 137              	.L4:
 133:../STM32Cube_FW_F4_V1.4.0/Drivers/STM32F4xx_HAL_Driver/Src/stm32f4xx_hal_dma_ex.c ****   }
 134:../STM32Cube_FW_F4_V1.4.0/Drivers/STM32F4xx_HAL_Driver/Src/stm32f4xx_hal_dma_ex.c **** 
 135:../STM32Cube_FW_F4_V1.4.0/Drivers/STM32F4xx_HAL_Driver/Src/stm32f4xx_hal_dma_ex.c ****    /* Check the parameters */
 136:../STM32Cube_FW_F4_V1.4.0/Drivers/STM32F4xx_HAL_Driver/Src/stm32f4xx_hal_dma_ex.c ****   assert_param(IS_DMA_BUFFER_SIZE(DataLength));
 138              		.loc 1 136 0
 139 0034 721E     		subs	r2, r6, #1	@ D.8252, DataLength,
 140 0036 4FF6FE73 		movw	r3, #65534	@ tmp142,
 141 003a 9A42     		cmp	r2, r3	@ D.8252, tmp142
 142 003c 03D9     		bls	.L5	@,
 143              		.loc 1 136 0 is_stmt 0 discriminator 1
 144 003e 1048     		ldr	r0, .L14	@,
 145              	.LVL3:
 146 0040 8821     		movs	r1, #136	@,
 147              	.LVL4:
ARM GAS  C:\cygwin\tmp\cc7ot9iS.s 			page 6


 148 0042 FFF7FEFF 		bl	assert_failed	@
 149              	.LVL5:
 150              	.L5:
 137:../STM32Cube_FW_F4_V1.4.0/Drivers/STM32F4xx_HAL_Driver/Src/stm32f4xx_hal_dma_ex.c **** 
 138:../STM32Cube_FW_F4_V1.4.0/Drivers/STM32F4xx_HAL_Driver/Src/stm32f4xx_hal_dma_ex.c ****   /* Disable the peripheral */
 139:../STM32Cube_FW_F4_V1.4.0/Drivers/STM32F4xx_HAL_Driver/Src/stm32f4xx_hal_dma_ex.c ****   __HAL_DMA_DISABLE(hdma);  
 151              		.loc 1 139 0 is_stmt 1
 152 0046 2168     		ldr	r1, [r4]	@ D.8251, hdma_6(D)->Instance
 153              	.LBB4:
 154              	.LBB5:
 140:../STM32Cube_FW_F4_V1.4.0/Drivers/STM32F4xx_HAL_Driver/Src/stm32f4xx_hal_dma_ex.c **** 
 141:../STM32Cube_FW_F4_V1.4.0/Drivers/STM32F4xx_HAL_Driver/Src/stm32f4xx_hal_dma_ex.c ****   /* Enable the double buffer mode */
 142:../STM32Cube_FW_F4_V1.4.0/Drivers/STM32F4xx_HAL_Driver/Src/stm32f4xx_hal_dma_ex.c ****   hdma->Instance->CR |= (uint32_t)DMA_SxCR_DBM;
 143:../STM32Cube_FW_F4_V1.4.0/Drivers/STM32F4xx_HAL_Driver/Src/stm32f4xx_hal_dma_ex.c **** 
 144:../STM32Cube_FW_F4_V1.4.0/Drivers/STM32F4xx_HAL_Driver/Src/stm32f4xx_hal_dma_ex.c ****   /* Configure DMA Stream destination address */
 145:../STM32Cube_FW_F4_V1.4.0/Drivers/STM32F4xx_HAL_Driver/Src/stm32f4xx_hal_dma_ex.c ****   hdma->Instance->M1AR = SecondMemAddress;
 146:../STM32Cube_FW_F4_V1.4.0/Drivers/STM32F4xx_HAL_Driver/Src/stm32f4xx_hal_dma_ex.c **** 
 147:../STM32Cube_FW_F4_V1.4.0/Drivers/STM32F4xx_HAL_Driver/Src/stm32f4xx_hal_dma_ex.c ****   /* Configure the source, destination address and the data length */
 148:../STM32Cube_FW_F4_V1.4.0/Drivers/STM32F4xx_HAL_Driver/Src/stm32f4xx_hal_dma_ex.c ****   DMA_MultiBufferSetConfig(hdma, SrcAddress, DstAddress, DataLength);
 149:../STM32Cube_FW_F4_V1.4.0/Drivers/STM32F4xx_HAL_Driver/Src/stm32f4xx_hal_dma_ex.c **** 
 150:../STM32Cube_FW_F4_V1.4.0/Drivers/STM32F4xx_HAL_Driver/Src/stm32f4xx_hal_dma_ex.c ****   /* Enable the peripheral */
 151:../STM32Cube_FW_F4_V1.4.0/Drivers/STM32F4xx_HAL_Driver/Src/stm32f4xx_hal_dma_ex.c ****   __HAL_DMA_ENABLE(hdma);
 152:../STM32Cube_FW_F4_V1.4.0/Drivers/STM32F4xx_HAL_Driver/Src/stm32f4xx_hal_dma_ex.c **** 
 153:../STM32Cube_FW_F4_V1.4.0/Drivers/STM32F4xx_HAL_Driver/Src/stm32f4xx_hal_dma_ex.c ****   return HAL_OK;
 154:../STM32Cube_FW_F4_V1.4.0/Drivers/STM32F4xx_HAL_Driver/Src/stm32f4xx_hal_dma_ex.c **** }
 155:../STM32Cube_FW_F4_V1.4.0/Drivers/STM32F4xx_HAL_Driver/Src/stm32f4xx_hal_dma_ex.c **** 
 156:../STM32Cube_FW_F4_V1.4.0/Drivers/STM32F4xx_HAL_Driver/Src/stm32f4xx_hal_dma_ex.c **** /**
 157:../STM32Cube_FW_F4_V1.4.0/Drivers/STM32F4xx_HAL_Driver/Src/stm32f4xx_hal_dma_ex.c ****   * @brief  Starts the multi_buffer DMA Transfer with interrupt enabled.
 158:../STM32Cube_FW_F4_V1.4.0/Drivers/STM32F4xx_HAL_Driver/Src/stm32f4xx_hal_dma_ex.c ****   * @param  hdma:       pointer to a DMA_HandleTypeDef structure that contains
 159:../STM32Cube_FW_F4_V1.4.0/Drivers/STM32F4xx_HAL_Driver/Src/stm32f4xx_hal_dma_ex.c ****   *                     the configuration information for the specified DMA Stream.  
 160:../STM32Cube_FW_F4_V1.4.0/Drivers/STM32F4xx_HAL_Driver/Src/stm32f4xx_hal_dma_ex.c ****   * @param  SrcAddress: The source memory Buffer address
 161:../STM32Cube_FW_F4_V1.4.0/Drivers/STM32F4xx_HAL_Driver/Src/stm32f4xx_hal_dma_ex.c ****   * @param  DstAddress: The destination memory Buffer address
 162:../STM32Cube_FW_F4_V1.4.0/Drivers/STM32F4xx_HAL_Driver/Src/stm32f4xx_hal_dma_ex.c ****   * @param  SecondMemAddress: The second memory Buffer address in case of multi buffer Transfer  
 163:../STM32Cube_FW_F4_V1.4.0/Drivers/STM32F4xx_HAL_Driver/Src/stm32f4xx_hal_dma_ex.c ****   * @param  DataLength: The length of data to be transferred from source to destination
 164:../STM32Cube_FW_F4_V1.4.0/Drivers/STM32F4xx_HAL_Driver/Src/stm32f4xx_hal_dma_ex.c ****   * @retval HAL status
 165:../STM32Cube_FW_F4_V1.4.0/Drivers/STM32F4xx_HAL_Driver/Src/stm32f4xx_hal_dma_ex.c ****   */
 166:../STM32Cube_FW_F4_V1.4.0/Drivers/STM32F4xx_HAL_Driver/Src/stm32f4xx_hal_dma_ex.c **** HAL_StatusTypeDef HAL_DMAEx_MultiBufferStart_IT(DMA_HandleTypeDef *hdma, uint32_t SrcAddress, uint3
 167:../STM32Cube_FW_F4_V1.4.0/Drivers/STM32F4xx_HAL_Driver/Src/stm32f4xx_hal_dma_ex.c **** {
 168:../STM32Cube_FW_F4_V1.4.0/Drivers/STM32F4xx_HAL_Driver/Src/stm32f4xx_hal_dma_ex.c ****   /* Process Locked */
 169:../STM32Cube_FW_F4_V1.4.0/Drivers/STM32F4xx_HAL_Driver/Src/stm32f4xx_hal_dma_ex.c ****   __HAL_LOCK(hdma);
 170:../STM32Cube_FW_F4_V1.4.0/Drivers/STM32F4xx_HAL_Driver/Src/stm32f4xx_hal_dma_ex.c **** 
 171:../STM32Cube_FW_F4_V1.4.0/Drivers/STM32F4xx_HAL_Driver/Src/stm32f4xx_hal_dma_ex.c ****   /* Current memory buffer used is Memory 0 */
 172:../STM32Cube_FW_F4_V1.4.0/Drivers/STM32F4xx_HAL_Driver/Src/stm32f4xx_hal_dma_ex.c ****   if((hdma->Instance->CR & DMA_SxCR_CT) == 0)
 173:../STM32Cube_FW_F4_V1.4.0/Drivers/STM32F4xx_HAL_Driver/Src/stm32f4xx_hal_dma_ex.c ****   {
 174:../STM32Cube_FW_F4_V1.4.0/Drivers/STM32F4xx_HAL_Driver/Src/stm32f4xx_hal_dma_ex.c ****     hdma->State = HAL_DMA_STATE_BUSY_MEM0;
 175:../STM32Cube_FW_F4_V1.4.0/Drivers/STM32F4xx_HAL_Driver/Src/stm32f4xx_hal_dma_ex.c ****   }
 176:../STM32Cube_FW_F4_V1.4.0/Drivers/STM32F4xx_HAL_Driver/Src/stm32f4xx_hal_dma_ex.c ****   /* Current memory buffer used is Memory 1 */
 177:../STM32Cube_FW_F4_V1.4.0/Drivers/STM32F4xx_HAL_Driver/Src/stm32f4xx_hal_dma_ex.c ****   else if((hdma->Instance->CR & DMA_SxCR_CT) != 0)
 178:../STM32Cube_FW_F4_V1.4.0/Drivers/STM32F4xx_HAL_Driver/Src/stm32f4xx_hal_dma_ex.c ****   {
 179:../STM32Cube_FW_F4_V1.4.0/Drivers/STM32F4xx_HAL_Driver/Src/stm32f4xx_hal_dma_ex.c ****     hdma->State = HAL_DMA_STATE_BUSY_MEM1;
 180:../STM32Cube_FW_F4_V1.4.0/Drivers/STM32F4xx_HAL_Driver/Src/stm32f4xx_hal_dma_ex.c ****   }
 181:../STM32Cube_FW_F4_V1.4.0/Drivers/STM32F4xx_HAL_Driver/Src/stm32f4xx_hal_dma_ex.c **** 
 182:../STM32Cube_FW_F4_V1.4.0/Drivers/STM32F4xx_HAL_Driver/Src/stm32f4xx_hal_dma_ex.c ****   /* Check the parameters */
 183:../STM32Cube_FW_F4_V1.4.0/Drivers/STM32F4xx_HAL_Driver/Src/stm32f4xx_hal_dma_ex.c ****   assert_param(IS_DMA_BUFFER_SIZE(DataLength));
 184:../STM32Cube_FW_F4_V1.4.0/Drivers/STM32F4xx_HAL_Driver/Src/stm32f4xx_hal_dma_ex.c **** 
 185:../STM32Cube_FW_F4_V1.4.0/Drivers/STM32F4xx_HAL_Driver/Src/stm32f4xx_hal_dma_ex.c ****   /* Disable the peripheral */
 186:../STM32Cube_FW_F4_V1.4.0/Drivers/STM32F4xx_HAL_Driver/Src/stm32f4xx_hal_dma_ex.c ****   __HAL_DMA_DISABLE(hdma);  
ARM GAS  C:\cygwin\tmp\cc7ot9iS.s 			page 7


 187:../STM32Cube_FW_F4_V1.4.0/Drivers/STM32F4xx_HAL_Driver/Src/stm32f4xx_hal_dma_ex.c **** 
 188:../STM32Cube_FW_F4_V1.4.0/Drivers/STM32F4xx_HAL_Driver/Src/stm32f4xx_hal_dma_ex.c ****   /* Enable the Double buffer mode */
 189:../STM32Cube_FW_F4_V1.4.0/Drivers/STM32F4xx_HAL_Driver/Src/stm32f4xx_hal_dma_ex.c ****   hdma->Instance->CR |= (uint32_t)DMA_SxCR_DBM;
 190:../STM32Cube_FW_F4_V1.4.0/Drivers/STM32F4xx_HAL_Driver/Src/stm32f4xx_hal_dma_ex.c **** 
 191:../STM32Cube_FW_F4_V1.4.0/Drivers/STM32F4xx_HAL_Driver/Src/stm32f4xx_hal_dma_ex.c ****   /* Configure DMA Stream destination address */
 192:../STM32Cube_FW_F4_V1.4.0/Drivers/STM32F4xx_HAL_Driver/Src/stm32f4xx_hal_dma_ex.c ****   hdma->Instance->M1AR = SecondMemAddress;
 193:../STM32Cube_FW_F4_V1.4.0/Drivers/STM32F4xx_HAL_Driver/Src/stm32f4xx_hal_dma_ex.c **** 
 194:../STM32Cube_FW_F4_V1.4.0/Drivers/STM32F4xx_HAL_Driver/Src/stm32f4xx_hal_dma_ex.c ****   /* Configure the source, destination address and the data length */
 195:../STM32Cube_FW_F4_V1.4.0/Drivers/STM32F4xx_HAL_Driver/Src/stm32f4xx_hal_dma_ex.c ****   DMA_MultiBufferSetConfig(hdma, SrcAddress, DstAddress, DataLength); 
 196:../STM32Cube_FW_F4_V1.4.0/Drivers/STM32F4xx_HAL_Driver/Src/stm32f4xx_hal_dma_ex.c **** 
 197:../STM32Cube_FW_F4_V1.4.0/Drivers/STM32F4xx_HAL_Driver/Src/stm32f4xx_hal_dma_ex.c ****   /* Enable the transfer complete interrupt */
 198:../STM32Cube_FW_F4_V1.4.0/Drivers/STM32F4xx_HAL_Driver/Src/stm32f4xx_hal_dma_ex.c ****   __HAL_DMA_ENABLE_IT(hdma, DMA_IT_TC);
 199:../STM32Cube_FW_F4_V1.4.0/Drivers/STM32F4xx_HAL_Driver/Src/stm32f4xx_hal_dma_ex.c **** 
 200:../STM32Cube_FW_F4_V1.4.0/Drivers/STM32F4xx_HAL_Driver/Src/stm32f4xx_hal_dma_ex.c ****   /* Enable the Half transfer interrupt */
 201:../STM32Cube_FW_F4_V1.4.0/Drivers/STM32F4xx_HAL_Driver/Src/stm32f4xx_hal_dma_ex.c ****   __HAL_DMA_ENABLE_IT(hdma, DMA_IT_HT);
 202:../STM32Cube_FW_F4_V1.4.0/Drivers/STM32F4xx_HAL_Driver/Src/stm32f4xx_hal_dma_ex.c **** 
 203:../STM32Cube_FW_F4_V1.4.0/Drivers/STM32F4xx_HAL_Driver/Src/stm32f4xx_hal_dma_ex.c ****   /* Enable the transfer Error interrupt */
 204:../STM32Cube_FW_F4_V1.4.0/Drivers/STM32F4xx_HAL_Driver/Src/stm32f4xx_hal_dma_ex.c ****   __HAL_DMA_ENABLE_IT(hdma, DMA_IT_TE);
 205:../STM32Cube_FW_F4_V1.4.0/Drivers/STM32F4xx_HAL_Driver/Src/stm32f4xx_hal_dma_ex.c **** 
 206:../STM32Cube_FW_F4_V1.4.0/Drivers/STM32F4xx_HAL_Driver/Src/stm32f4xx_hal_dma_ex.c ****   /* Enable the fifo Error interrupt */
 207:../STM32Cube_FW_F4_V1.4.0/Drivers/STM32F4xx_HAL_Driver/Src/stm32f4xx_hal_dma_ex.c ****   __HAL_DMA_ENABLE_IT(hdma, DMA_IT_FE);  
 208:../STM32Cube_FW_F4_V1.4.0/Drivers/STM32F4xx_HAL_Driver/Src/stm32f4xx_hal_dma_ex.c **** 
 209:../STM32Cube_FW_F4_V1.4.0/Drivers/STM32F4xx_HAL_Driver/Src/stm32f4xx_hal_dma_ex.c ****   /* Enable the direct mode Error interrupt */
 210:../STM32Cube_FW_F4_V1.4.0/Drivers/STM32F4xx_HAL_Driver/Src/stm32f4xx_hal_dma_ex.c ****   __HAL_DMA_ENABLE_IT(hdma, DMA_IT_DME); 
 211:../STM32Cube_FW_F4_V1.4.0/Drivers/STM32F4xx_HAL_Driver/Src/stm32f4xx_hal_dma_ex.c **** 
 212:../STM32Cube_FW_F4_V1.4.0/Drivers/STM32F4xx_HAL_Driver/Src/stm32f4xx_hal_dma_ex.c ****   /* Enable the peripheral */
 213:../STM32Cube_FW_F4_V1.4.0/Drivers/STM32F4xx_HAL_Driver/Src/stm32f4xx_hal_dma_ex.c ****   __HAL_DMA_ENABLE(hdma); 
 214:../STM32Cube_FW_F4_V1.4.0/Drivers/STM32F4xx_HAL_Driver/Src/stm32f4xx_hal_dma_ex.c **** 
 215:../STM32Cube_FW_F4_V1.4.0/Drivers/STM32F4xx_HAL_Driver/Src/stm32f4xx_hal_dma_ex.c ****   return HAL_OK; 
 216:../STM32Cube_FW_F4_V1.4.0/Drivers/STM32F4xx_HAL_Driver/Src/stm32f4xx_hal_dma_ex.c **** }
 217:../STM32Cube_FW_F4_V1.4.0/Drivers/STM32F4xx_HAL_Driver/Src/stm32f4xx_hal_dma_ex.c **** 
 218:../STM32Cube_FW_F4_V1.4.0/Drivers/STM32F4xx_HAL_Driver/Src/stm32f4xx_hal_dma_ex.c **** /**
 219:../STM32Cube_FW_F4_V1.4.0/Drivers/STM32F4xx_HAL_Driver/Src/stm32f4xx_hal_dma_ex.c ****   * @brief  Change the memory0 or memory1 address on the fly.
 220:../STM32Cube_FW_F4_V1.4.0/Drivers/STM32F4xx_HAL_Driver/Src/stm32f4xx_hal_dma_ex.c ****   * @param  hdma:       pointer to a DMA_HandleTypeDef structure that contains
 221:../STM32Cube_FW_F4_V1.4.0/Drivers/STM32F4xx_HAL_Driver/Src/stm32f4xx_hal_dma_ex.c ****   *                     the configuration information for the specified DMA Stream.  
 222:../STM32Cube_FW_F4_V1.4.0/Drivers/STM32F4xx_HAL_Driver/Src/stm32f4xx_hal_dma_ex.c ****   * @param  Address:    The new address
 223:../STM32Cube_FW_F4_V1.4.0/Drivers/STM32F4xx_HAL_Driver/Src/stm32f4xx_hal_dma_ex.c ****   * @param  memory:     the memory to be changed, This parameter can be one of 
 224:../STM32Cube_FW_F4_V1.4.0/Drivers/STM32F4xx_HAL_Driver/Src/stm32f4xx_hal_dma_ex.c ****   *                     the following values:
 225:../STM32Cube_FW_F4_V1.4.0/Drivers/STM32F4xx_HAL_Driver/Src/stm32f4xx_hal_dma_ex.c ****   *                      MEMORY0 /
 226:../STM32Cube_FW_F4_V1.4.0/Drivers/STM32F4xx_HAL_Driver/Src/stm32f4xx_hal_dma_ex.c ****   *                      MEMORY1
 227:../STM32Cube_FW_F4_V1.4.0/Drivers/STM32F4xx_HAL_Driver/Src/stm32f4xx_hal_dma_ex.c ****   * @note   The MEMORY0 address can be changed only when the current transfer use
 228:../STM32Cube_FW_F4_V1.4.0/Drivers/STM32F4xx_HAL_Driver/Src/stm32f4xx_hal_dma_ex.c ****   *         MEMORY1 and the MEMORY1 address can be changed only when the current 
 229:../STM32Cube_FW_F4_V1.4.0/Drivers/STM32F4xx_HAL_Driver/Src/stm32f4xx_hal_dma_ex.c ****   *         transfer use MEMORY0.
 230:../STM32Cube_FW_F4_V1.4.0/Drivers/STM32F4xx_HAL_Driver/Src/stm32f4xx_hal_dma_ex.c ****   * @retval HAL status
 231:../STM32Cube_FW_F4_V1.4.0/Drivers/STM32F4xx_HAL_Driver/Src/stm32f4xx_hal_dma_ex.c ****   */
 232:../STM32Cube_FW_F4_V1.4.0/Drivers/STM32F4xx_HAL_Driver/Src/stm32f4xx_hal_dma_ex.c **** HAL_StatusTypeDef HAL_DMAEx_ChangeMemory(DMA_HandleTypeDef *hdma, uint32_t Address, HAL_DMA_MemoryT
 233:../STM32Cube_FW_F4_V1.4.0/Drivers/STM32F4xx_HAL_Driver/Src/stm32f4xx_hal_dma_ex.c **** {
 234:../STM32Cube_FW_F4_V1.4.0/Drivers/STM32F4xx_HAL_Driver/Src/stm32f4xx_hal_dma_ex.c ****   if(memory == MEMORY0)
 235:../STM32Cube_FW_F4_V1.4.0/Drivers/STM32F4xx_HAL_Driver/Src/stm32f4xx_hal_dma_ex.c ****   {
 236:../STM32Cube_FW_F4_V1.4.0/Drivers/STM32F4xx_HAL_Driver/Src/stm32f4xx_hal_dma_ex.c ****     /* change the memory0 address */
 237:../STM32Cube_FW_F4_V1.4.0/Drivers/STM32F4xx_HAL_Driver/Src/stm32f4xx_hal_dma_ex.c ****     hdma->Instance->M0AR = Address;
 238:../STM32Cube_FW_F4_V1.4.0/Drivers/STM32F4xx_HAL_Driver/Src/stm32f4xx_hal_dma_ex.c ****   }
 239:../STM32Cube_FW_F4_V1.4.0/Drivers/STM32F4xx_HAL_Driver/Src/stm32f4xx_hal_dma_ex.c ****   else
 240:../STM32Cube_FW_F4_V1.4.0/Drivers/STM32F4xx_HAL_Driver/Src/stm32f4xx_hal_dma_ex.c ****   {
 241:../STM32Cube_FW_F4_V1.4.0/Drivers/STM32F4xx_HAL_Driver/Src/stm32f4xx_hal_dma_ex.c ****     /* change the memory1 address */
 242:../STM32Cube_FW_F4_V1.4.0/Drivers/STM32F4xx_HAL_Driver/Src/stm32f4xx_hal_dma_ex.c ****     hdma->Instance->M1AR = Address;
 243:../STM32Cube_FW_F4_V1.4.0/Drivers/STM32F4xx_HAL_Driver/Src/stm32f4xx_hal_dma_ex.c ****   }
ARM GAS  C:\cygwin\tmp\cc7ot9iS.s 			page 8


 244:../STM32Cube_FW_F4_V1.4.0/Drivers/STM32F4xx_HAL_Driver/Src/stm32f4xx_hal_dma_ex.c **** 
 245:../STM32Cube_FW_F4_V1.4.0/Drivers/STM32F4xx_HAL_Driver/Src/stm32f4xx_hal_dma_ex.c ****   return HAL_OK;
 246:../STM32Cube_FW_F4_V1.4.0/Drivers/STM32F4xx_HAL_Driver/Src/stm32f4xx_hal_dma_ex.c **** }
 247:../STM32Cube_FW_F4_V1.4.0/Drivers/STM32F4xx_HAL_Driver/Src/stm32f4xx_hal_dma_ex.c **** 
 248:../STM32Cube_FW_F4_V1.4.0/Drivers/STM32F4xx_HAL_Driver/Src/stm32f4xx_hal_dma_ex.c **** /**
 249:../STM32Cube_FW_F4_V1.4.0/Drivers/STM32F4xx_HAL_Driver/Src/stm32f4xx_hal_dma_ex.c ****   * @}
 250:../STM32Cube_FW_F4_V1.4.0/Drivers/STM32F4xx_HAL_Driver/Src/stm32f4xx_hal_dma_ex.c ****   */
 251:../STM32Cube_FW_F4_V1.4.0/Drivers/STM32F4xx_HAL_Driver/Src/stm32f4xx_hal_dma_ex.c **** 
 252:../STM32Cube_FW_F4_V1.4.0/Drivers/STM32F4xx_HAL_Driver/Src/stm32f4xx_hal_dma_ex.c **** /**
 253:../STM32Cube_FW_F4_V1.4.0/Drivers/STM32F4xx_HAL_Driver/Src/stm32f4xx_hal_dma_ex.c ****   * @}
 254:../STM32Cube_FW_F4_V1.4.0/Drivers/STM32F4xx_HAL_Driver/Src/stm32f4xx_hal_dma_ex.c ****   */
 255:../STM32Cube_FW_F4_V1.4.0/Drivers/STM32F4xx_HAL_Driver/Src/stm32f4xx_hal_dma_ex.c **** 
 256:../STM32Cube_FW_F4_V1.4.0/Drivers/STM32F4xx_HAL_Driver/Src/stm32f4xx_hal_dma_ex.c **** /** @addtogroup DMAEx_Private_Functions
 257:../STM32Cube_FW_F4_V1.4.0/Drivers/STM32F4xx_HAL_Driver/Src/stm32f4xx_hal_dma_ex.c ****   * @{
 258:../STM32Cube_FW_F4_V1.4.0/Drivers/STM32F4xx_HAL_Driver/Src/stm32f4xx_hal_dma_ex.c ****   */
 259:../STM32Cube_FW_F4_V1.4.0/Drivers/STM32F4xx_HAL_Driver/Src/stm32f4xx_hal_dma_ex.c **** 
 260:../STM32Cube_FW_F4_V1.4.0/Drivers/STM32F4xx_HAL_Driver/Src/stm32f4xx_hal_dma_ex.c **** /**
 261:../STM32Cube_FW_F4_V1.4.0/Drivers/STM32F4xx_HAL_Driver/Src/stm32f4xx_hal_dma_ex.c ****   * @brief  Set the DMA Transfer parameter.
 262:../STM32Cube_FW_F4_V1.4.0/Drivers/STM32F4xx_HAL_Driver/Src/stm32f4xx_hal_dma_ex.c ****   * @param  hdma:       pointer to a DMA_HandleTypeDef structure that contains
 263:../STM32Cube_FW_F4_V1.4.0/Drivers/STM32F4xx_HAL_Driver/Src/stm32f4xx_hal_dma_ex.c ****   *                     the configuration information for the specified DMA Stream.  
 264:../STM32Cube_FW_F4_V1.4.0/Drivers/STM32F4xx_HAL_Driver/Src/stm32f4xx_hal_dma_ex.c ****   * @param  SrcAddress: The source memory Buffer address
 265:../STM32Cube_FW_F4_V1.4.0/Drivers/STM32F4xx_HAL_Driver/Src/stm32f4xx_hal_dma_ex.c ****   * @param  DstAddress: The destination memory Buffer address
 266:../STM32Cube_FW_F4_V1.4.0/Drivers/STM32F4xx_HAL_Driver/Src/stm32f4xx_hal_dma_ex.c ****   * @param  DataLength: The length of data to be transferred from source to destination
 267:../STM32Cube_FW_F4_V1.4.0/Drivers/STM32F4xx_HAL_Driver/Src/stm32f4xx_hal_dma_ex.c ****   * @retval HAL status
 268:../STM32Cube_FW_F4_V1.4.0/Drivers/STM32F4xx_HAL_Driver/Src/stm32f4xx_hal_dma_ex.c ****   */
 269:../STM32Cube_FW_F4_V1.4.0/Drivers/STM32F4xx_HAL_Driver/Src/stm32f4xx_hal_dma_ex.c **** static void DMA_MultiBufferSetConfig(DMA_HandleTypeDef *hdma, uint32_t SrcAddress, uint32_t DstAddr
 270:../STM32Cube_FW_F4_V1.4.0/Drivers/STM32F4xx_HAL_Driver/Src/stm32f4xx_hal_dma_ex.c **** {  
 271:../STM32Cube_FW_F4_V1.4.0/Drivers/STM32F4xx_HAL_Driver/Src/stm32f4xx_hal_dma_ex.c ****   /* Configure DMA Stream data length */
 272:../STM32Cube_FW_F4_V1.4.0/Drivers/STM32F4xx_HAL_Driver/Src/stm32f4xx_hal_dma_ex.c ****   hdma->Instance->NDTR = DataLength;
 273:../STM32Cube_FW_F4_V1.4.0/Drivers/STM32F4xx_HAL_Driver/Src/stm32f4xx_hal_dma_ex.c ****   
 274:../STM32Cube_FW_F4_V1.4.0/Drivers/STM32F4xx_HAL_Driver/Src/stm32f4xx_hal_dma_ex.c ****   /* Peripheral to Memory */
 275:../STM32Cube_FW_F4_V1.4.0/Drivers/STM32F4xx_HAL_Driver/Src/stm32f4xx_hal_dma_ex.c ****   if((hdma->Init.Direction) == DMA_MEMORY_TO_PERIPH)
 155              		.loc 1 275 0
 156 0048 A368     		ldr	r3, [r4, #8]	@ hdma_6(D)->Init.Direction, hdma_6(D)->Init.Direction
 157              	.LBE5:
 158              	.LBE4:
 139:../STM32Cube_FW_F4_V1.4.0/Drivers/STM32F4xx_HAL_Driver/Src/stm32f4xx_hal_dma_ex.c **** 
 159              		.loc 1 139 0
 160 004a 0868     		ldr	r0, [r1]	@ D.8252, _19->CR
 161 004c 20F00100 		bic	r0, r0, #1	@ D.8252, D.8252,
 162 0050 0860     		str	r0, [r1]	@ D.8252, _19->CR
 142:../STM32Cube_FW_F4_V1.4.0/Drivers/STM32F4xx_HAL_Driver/Src/stm32f4xx_hal_dma_ex.c **** 
 163              		.loc 1 142 0
 164 0052 0868     		ldr	r0, [r1]	@ D.8252, _19->CR
 165              	.LBB8:
 166              	.LBB6:
 167              		.loc 1 275 0
 168 0054 402B     		cmp	r3, #64	@ hdma_6(D)->Init.Direction,
 169              	.LBE6:
 170              	.LBE8:
 142:../STM32Cube_FW_F4_V1.4.0/Drivers/STM32F4xx_HAL_Driver/Src/stm32f4xx_hal_dma_ex.c **** 
 171              		.loc 1 142 0
 172 0056 40F48020 		orr	r0, r0, #262144	@ D.8252, D.8252,
 173 005a 0860     		str	r0, [r1]	@ D.8252, _19->CR
 145:../STM32Cube_FW_F4_V1.4.0/Drivers/STM32F4xx_HAL_Driver/Src/stm32f4xx_hal_dma_ex.c **** 
 174              		.loc 1 145 0
 175 005c C1F81080 		str	r8, [r1, #16]	@ SecondMemAddress, _19->M1AR
ARM GAS  C:\cygwin\tmp\cc7ot9iS.s 			page 9


 176              	.LVL6:
 177              	.LBB9:
 178              	.LBB7:
 272:../STM32Cube_FW_F4_V1.4.0/Drivers/STM32F4xx_HAL_Driver/Src/stm32f4xx_hal_dma_ex.c ****   
 179              		.loc 1 272 0
 180 0060 4E60     		str	r6, [r1, #4]	@ DataLength, _19->NDTR
 276:../STM32Cube_FW_F4_V1.4.0/Drivers/STM32F4xx_HAL_Driver/Src/stm32f4xx_hal_dma_ex.c ****   {   
 277:../STM32Cube_FW_F4_V1.4.0/Drivers/STM32F4xx_HAL_Driver/Src/stm32f4xx_hal_dma_ex.c ****     /* Configure DMA Stream destination address */
 278:../STM32Cube_FW_F4_V1.4.0/Drivers/STM32F4xx_HAL_Driver/Src/stm32f4xx_hal_dma_ex.c ****     hdma->Instance->PAR = DstAddress;
 181              		.loc 1 278 0
 182 0062 0BBF     		itete	eq
 183 0064 8D60     		streq	r5, [r1, #8]	@ DstAddress, _19->PAR
 279:../STM32Cube_FW_F4_V1.4.0/Drivers/STM32F4xx_HAL_Driver/Src/stm32f4xx_hal_dma_ex.c ****     
 280:../STM32Cube_FW_F4_V1.4.0/Drivers/STM32F4xx_HAL_Driver/Src/stm32f4xx_hal_dma_ex.c ****     /* Configure DMA Stream source address */
 281:../STM32Cube_FW_F4_V1.4.0/Drivers/STM32F4xx_HAL_Driver/Src/stm32f4xx_hal_dma_ex.c ****     hdma->Instance->M0AR = SrcAddress;
 282:../STM32Cube_FW_F4_V1.4.0/Drivers/STM32F4xx_HAL_Driver/Src/stm32f4xx_hal_dma_ex.c ****   }
 283:../STM32Cube_FW_F4_V1.4.0/Drivers/STM32F4xx_HAL_Driver/Src/stm32f4xx_hal_dma_ex.c ****   /* Memory to Peripheral */
 284:../STM32Cube_FW_F4_V1.4.0/Drivers/STM32F4xx_HAL_Driver/Src/stm32f4xx_hal_dma_ex.c ****   else
 285:../STM32Cube_FW_F4_V1.4.0/Drivers/STM32F4xx_HAL_Driver/Src/stm32f4xx_hal_dma_ex.c ****   {
 286:../STM32Cube_FW_F4_V1.4.0/Drivers/STM32F4xx_HAL_Driver/Src/stm32f4xx_hal_dma_ex.c ****     /* Configure DMA Stream source address */
 287:../STM32Cube_FW_F4_V1.4.0/Drivers/STM32F4xx_HAL_Driver/Src/stm32f4xx_hal_dma_ex.c ****     hdma->Instance->PAR = SrcAddress;
 184              		.loc 1 287 0
 185 0066 8F60     		strne	r7, [r1, #8]	@ SrcAddress, _19->PAR
 281:../STM32Cube_FW_F4_V1.4.0/Drivers/STM32F4xx_HAL_Driver/Src/stm32f4xx_hal_dma_ex.c ****   }
 186              		.loc 1 281 0
 187 0068 CF60     		streq	r7, [r1, #12]	@ SrcAddress, _19->M0AR
 288:../STM32Cube_FW_F4_V1.4.0/Drivers/STM32F4xx_HAL_Driver/Src/stm32f4xx_hal_dma_ex.c ****     
 289:../STM32Cube_FW_F4_V1.4.0/Drivers/STM32F4xx_HAL_Driver/Src/stm32f4xx_hal_dma_ex.c ****     /* Configure DMA Stream destination address */
 290:../STM32Cube_FW_F4_V1.4.0/Drivers/STM32F4xx_HAL_Driver/Src/stm32f4xx_hal_dma_ex.c ****     hdma->Instance->M0AR = DstAddress;
 188              		.loc 1 290 0
 189 006a CD60     		strne	r5, [r1, #12]	@ DstAddress, _19->M0AR
 190              	.LBE7:
 191              	.LBE9:
 151:../STM32Cube_FW_F4_V1.4.0/Drivers/STM32F4xx_HAL_Driver/Src/stm32f4xx_hal_dma_ex.c **** 
 192              		.loc 1 151 0
 193 006c 0B68     		ldr	r3, [r1]	@ D.8252, _19->CR
 194 006e 43F00103 		orr	r3, r3, #1	@ D.8252, D.8252,
 195 0072 0B60     		str	r3, [r1]	@ D.8252, _19->CR
 153:../STM32Cube_FW_F4_V1.4.0/Drivers/STM32F4xx_HAL_Driver/Src/stm32f4xx_hal_dma_ex.c **** }
 196              		.loc 1 153 0
 197 0074 0020     		movs	r0, #0	@ D.8249,
 198 0076 BDE8F081 		pop	{r4, r5, r6, r7, r8, pc}	@
 199              	.LVL7:
 200              	.L8:
 122:../STM32Cube_FW_F4_V1.4.0/Drivers/STM32F4xx_HAL_Driver/Src/stm32f4xx_hal_dma_ex.c **** 
 201              		.loc 1 122 0
 202 007a 0220     		movs	r0, #2	@ D.8249,
 203              	.LVL8:
 154:../STM32Cube_FW_F4_V1.4.0/Drivers/STM32F4xx_HAL_Driver/Src/stm32f4xx_hal_dma_ex.c **** 
 204              		.loc 1 154 0
 205 007c BDE8F081 		pop	{r4, r5, r6, r7, r8, pc}	@
 206              	.LVL9:
 207              	.L15:
 208              		.align	2
 209              	.L14:
 210 0080 00000000 		.word	.LC0
 211              		.cfi_endproc
ARM GAS  C:\cygwin\tmp\cc7ot9iS.s 			page 10


 212              	.LFE123:
 213              		.size	HAL_DMAEx_MultiBufferStart, .-HAL_DMAEx_MultiBufferStart
 214              		.section	.text.HAL_DMAEx_MultiBufferStart_IT,"ax",%progbits
 215              		.align	1
 216              		.global	HAL_DMAEx_MultiBufferStart_IT
 217              		.thumb
 218              		.thumb_func
 219              		.type	HAL_DMAEx_MultiBufferStart_IT, %function
 220              	HAL_DMAEx_MultiBufferStart_IT:
 221              	.LFB124:
 167:../STM32Cube_FW_F4_V1.4.0/Drivers/STM32F4xx_HAL_Driver/Src/stm32f4xx_hal_dma_ex.c ****   /* Process Locked */
 222              		.loc 1 167 0
 223              		.cfi_startproc
 224              		@ args = 4, pretend = 0, frame = 0
 225              		@ frame_needed = 0, uses_anonymous_args = 0
 226              	.LVL10:
 227 0000 2DE9F041 		push	{r4, r5, r6, r7, r8, lr}	@
 228              		.cfi_def_cfa_offset 24
 229              		.cfi_offset 4, -24
 230              		.cfi_offset 5, -20
 231              		.cfi_offset 6, -16
 232              		.cfi_offset 7, -12
 233              		.cfi_offset 8, -8
 234              		.cfi_offset 14, -4
 167:../STM32Cube_FW_F4_V1.4.0/Drivers/STM32F4xx_HAL_Driver/Src/stm32f4xx_hal_dma_ex.c ****   /* Process Locked */
 235              		.loc 1 167 0
 236 0004 9846     		mov	r8, r3	@ SecondMemAddress, SecondMemAddress
 169:../STM32Cube_FW_F4_V1.4.0/Drivers/STM32F4xx_HAL_Driver/Src/stm32f4xx_hal_dma_ex.c **** 
 237              		.loc 1 169 0
 238 0006 90F83430 		ldrb	r3, [r0, #52]	@ zero_extendqisi2	@ hdma_6(D)->Lock, hdma_6(D)->Lock
 239              	.LVL11:
 167:../STM32Cube_FW_F4_V1.4.0/Drivers/STM32F4xx_HAL_Driver/Src/stm32f4xx_hal_dma_ex.c ****   /* Process Locked */
 240              		.loc 1 167 0
 241 000a 069E     		ldr	r6, [sp, #24]	@ DataLength, DataLength
 169:../STM32Cube_FW_F4_V1.4.0/Drivers/STM32F4xx_HAL_Driver/Src/stm32f4xx_hal_dma_ex.c **** 
 242              		.loc 1 169 0
 243 000c 012B     		cmp	r3, #1	@ hdma_6(D)->Lock,
 167:../STM32Cube_FW_F4_V1.4.0/Drivers/STM32F4xx_HAL_Driver/Src/stm32f4xx_hal_dma_ex.c ****   /* Process Locked */
 244              		.loc 1 167 0
 245 000e 0446     		mov	r4, r0	@ hdma, hdma
 246 0010 0F46     		mov	r7, r1	@ SrcAddress, SrcAddress
 247 0012 1546     		mov	r5, r2	@ DstAddress, DstAddress
 169:../STM32Cube_FW_F4_V1.4.0/Drivers/STM32F4xx_HAL_Driver/Src/stm32f4xx_hal_dma_ex.c **** 
 248              		.loc 1 169 0
 249 0014 45D0     		beq	.L23	@,
 169:../STM32Cube_FW_F4_V1.4.0/Drivers/STM32F4xx_HAL_Driver/Src/stm32f4xx_hal_dma_ex.c **** 
 250              		.loc 1 169 0 is_stmt 0 discriminator 2
 251 0016 0123     		movs	r3, #1	@ tmp143,
 252 0018 80F83430 		strb	r3, [r0, #52]	@ tmp143, hdma_6(D)->Lock
 172:../STM32Cube_FW_F4_V1.4.0/Drivers/STM32F4xx_HAL_Driver/Src/stm32f4xx_hal_dma_ex.c ****   {
 253              		.loc 1 172 0 is_stmt 1 discriminator 2
 254 001c 0368     		ldr	r3, [r0]	@ D.8262, hdma_6(D)->Instance
 255 001e 1A68     		ldr	r2, [r3]	@ D.8263, _9->CR
 256              	.LVL12:
 257 0020 1203     		lsls	r2, r2, #12	@, D.8263,
 258 0022 01D4     		bmi	.L18	@,
 174:../STM32Cube_FW_F4_V1.4.0/Drivers/STM32F4xx_HAL_Driver/Src/stm32f4xx_hal_dma_ex.c ****   }
ARM GAS  C:\cygwin\tmp\cc7ot9iS.s 			page 11


 259              		.loc 1 174 0
 260 0024 1223     		movs	r3, #18	@ tmp146,
 261 0026 03E0     		b	.L27	@
 262              	.L18:
 177:../STM32Cube_FW_F4_V1.4.0/Drivers/STM32F4xx_HAL_Driver/Src/stm32f4xx_hal_dma_ex.c ****   {
 263              		.loc 1 177 0
 264 0028 1B68     		ldr	r3, [r3]	@ D.8263, _9->CR
 265 002a 1B03     		lsls	r3, r3, #12	@, D.8263,
 266 002c 02D5     		bpl	.L19	@,
 179:../STM32Cube_FW_F4_V1.4.0/Drivers/STM32F4xx_HAL_Driver/Src/stm32f4xx_hal_dma_ex.c ****   }
 267              		.loc 1 179 0
 268 002e 2223     		movs	r3, #34	@ tmp149,
 269              	.L27:
 270 0030 84F83530 		strb	r3, [r4, #53]	@ tmp149,
 271              	.L19:
 183:../STM32Cube_FW_F4_V1.4.0/Drivers/STM32F4xx_HAL_Driver/Src/stm32f4xx_hal_dma_ex.c **** 
 272              		.loc 1 183 0
 273 0034 721E     		subs	r2, r6, #1	@ D.8263, DataLength,
 274 0036 4FF6FE73 		movw	r3, #65534	@ tmp152,
 275 003a 9A42     		cmp	r2, r3	@ D.8263, tmp152
 276 003c 03D9     		bls	.L20	@,
 183:../STM32Cube_FW_F4_V1.4.0/Drivers/STM32F4xx_HAL_Driver/Src/stm32f4xx_hal_dma_ex.c **** 
 277              		.loc 1 183 0 is_stmt 0 discriminator 1
 278 003e 1A48     		ldr	r0, .L28	@,
 279              	.LVL13:
 280 0040 B721     		movs	r1, #183	@,
 281              	.LVL14:
 282 0042 FFF7FEFF 		bl	assert_failed	@
 283              	.LVL15:
 284              	.L20:
 186:../STM32Cube_FW_F4_V1.4.0/Drivers/STM32F4xx_HAL_Driver/Src/stm32f4xx_hal_dma_ex.c **** 
 285              		.loc 1 186 0 is_stmt 1
 286 0046 2168     		ldr	r1, [r4]	@ D.8262, hdma_6(D)->Instance
 287              	.LBB12:
 288              	.LBB13:
 275:../STM32Cube_FW_F4_V1.4.0/Drivers/STM32F4xx_HAL_Driver/Src/stm32f4xx_hal_dma_ex.c ****   {   
 289              		.loc 1 275 0
 290 0048 A368     		ldr	r3, [r4, #8]	@ hdma_6(D)->Init.Direction, hdma_6(D)->Init.Direction
 291              	.LBE13:
 292              	.LBE12:
 186:../STM32Cube_FW_F4_V1.4.0/Drivers/STM32F4xx_HAL_Driver/Src/stm32f4xx_hal_dma_ex.c **** 
 293              		.loc 1 186 0
 294 004a 0868     		ldr	r0, [r1]	@ D.8263, _19->CR
 295 004c 20F00100 		bic	r0, r0, #1	@ D.8263, D.8263,
 296 0050 0860     		str	r0, [r1]	@ D.8263, _19->CR
 189:../STM32Cube_FW_F4_V1.4.0/Drivers/STM32F4xx_HAL_Driver/Src/stm32f4xx_hal_dma_ex.c **** 
 297              		.loc 1 189 0
 298 0052 0868     		ldr	r0, [r1]	@ D.8263, _19->CR
 299              	.LBB16:
 300              	.LBB14:
 275:../STM32Cube_FW_F4_V1.4.0/Drivers/STM32F4xx_HAL_Driver/Src/stm32f4xx_hal_dma_ex.c ****   {   
 301              		.loc 1 275 0
 302 0054 402B     		cmp	r3, #64	@ hdma_6(D)->Init.Direction,
 303              	.LBE14:
 304              	.LBE16:
 189:../STM32Cube_FW_F4_V1.4.0/Drivers/STM32F4xx_HAL_Driver/Src/stm32f4xx_hal_dma_ex.c **** 
 305              		.loc 1 189 0
ARM GAS  C:\cygwin\tmp\cc7ot9iS.s 			page 12


 306 0056 40F48020 		orr	r0, r0, #262144	@ D.8263, D.8263,
 307 005a 0860     		str	r0, [r1]	@ D.8263, _19->CR
 192:../STM32Cube_FW_F4_V1.4.0/Drivers/STM32F4xx_HAL_Driver/Src/stm32f4xx_hal_dma_ex.c **** 
 308              		.loc 1 192 0
 309 005c C1F81080 		str	r8, [r1, #16]	@ SecondMemAddress, _19->M1AR
 310              	.LVL16:
 311              	.LBB17:
 312              	.LBB15:
 272:../STM32Cube_FW_F4_V1.4.0/Drivers/STM32F4xx_HAL_Driver/Src/stm32f4xx_hal_dma_ex.c ****   
 313              		.loc 1 272 0
 314 0060 4E60     		str	r6, [r1, #4]	@ DataLength, _19->NDTR
 278:../STM32Cube_FW_F4_V1.4.0/Drivers/STM32F4xx_HAL_Driver/Src/stm32f4xx_hal_dma_ex.c ****     
 315              		.loc 1 278 0
 316 0062 0BBF     		itete	eq
 317 0064 8D60     		streq	r5, [r1, #8]	@ DstAddress, _19->PAR
 287:../STM32Cube_FW_F4_V1.4.0/Drivers/STM32F4xx_HAL_Driver/Src/stm32f4xx_hal_dma_ex.c ****     
 318              		.loc 1 287 0
 319 0066 8F60     		strne	r7, [r1, #8]	@ SrcAddress, _19->PAR
 281:../STM32Cube_FW_F4_V1.4.0/Drivers/STM32F4xx_HAL_Driver/Src/stm32f4xx_hal_dma_ex.c ****   }
 320              		.loc 1 281 0
 321 0068 CF60     		streq	r7, [r1, #12]	@ SrcAddress, _19->M0AR
 322              		.loc 1 290 0
 323 006a CD60     		strne	r5, [r1, #12]	@ DstAddress, _19->M0AR
 324              	.LBE15:
 325              	.LBE17:
 198:../STM32Cube_FW_F4_V1.4.0/Drivers/STM32F4xx_HAL_Driver/Src/stm32f4xx_hal_dma_ex.c **** 
 326              		.loc 1 198 0
 327 006c 0B68     		ldr	r3, [r1]	@ D.8263, _19->CR
 328 006e 43F01003 		orr	r3, r3, #16	@ D.8263, D.8263,
 329 0072 0B60     		str	r3, [r1]	@ D.8263, _19->CR
 201:../STM32Cube_FW_F4_V1.4.0/Drivers/STM32F4xx_HAL_Driver/Src/stm32f4xx_hal_dma_ex.c **** 
 330              		.loc 1 201 0
 331 0074 0B68     		ldr	r3, [r1]	@ D.8263, _19->CR
 332 0076 43F00803 		orr	r3, r3, #8	@ D.8263, D.8263,
 333 007a 0B60     		str	r3, [r1]	@ D.8263, _19->CR
 204:../STM32Cube_FW_F4_V1.4.0/Drivers/STM32F4xx_HAL_Driver/Src/stm32f4xx_hal_dma_ex.c **** 
 334              		.loc 1 204 0
 335 007c 0B68     		ldr	r3, [r1]	@ D.8263, _19->CR
 336 007e 43F00403 		orr	r3, r3, #4	@ D.8263, D.8263,
 337 0082 0B60     		str	r3, [r1]	@ D.8263, _19->CR
 207:../STM32Cube_FW_F4_V1.4.0/Drivers/STM32F4xx_HAL_Driver/Src/stm32f4xx_hal_dma_ex.c **** 
 338              		.loc 1 207 0
 339 0084 4B69     		ldr	r3, [r1, #20]	@ D.8263, _19->FCR
 340 0086 43F08003 		orr	r3, r3, #128	@ D.8263, D.8263,
 341 008a 4B61     		str	r3, [r1, #20]	@ D.8263, _19->FCR
 210:../STM32Cube_FW_F4_V1.4.0/Drivers/STM32F4xx_HAL_Driver/Src/stm32f4xx_hal_dma_ex.c **** 
 342              		.loc 1 210 0
 343 008c 0B68     		ldr	r3, [r1]	@ D.8263, _19->CR
 344 008e 43F00203 		orr	r3, r3, #2	@ D.8263, D.8263,
 345 0092 0B60     		str	r3, [r1]	@ D.8263, _19->CR
 213:../STM32Cube_FW_F4_V1.4.0/Drivers/STM32F4xx_HAL_Driver/Src/stm32f4xx_hal_dma_ex.c **** 
 346              		.loc 1 213 0
 347 0094 0B68     		ldr	r3, [r1]	@ D.8263, _19->CR
 348 0096 43F00103 		orr	r3, r3, #1	@ D.8263, D.8263,
 349 009a 0B60     		str	r3, [r1]	@ D.8263, _19->CR
 215:../STM32Cube_FW_F4_V1.4.0/Drivers/STM32F4xx_HAL_Driver/Src/stm32f4xx_hal_dma_ex.c **** }
 350              		.loc 1 215 0
ARM GAS  C:\cygwin\tmp\cc7ot9iS.s 			page 13


 351 009c 0020     		movs	r0, #0	@ D.8260,
 352 009e BDE8F081 		pop	{r4, r5, r6, r7, r8, pc}	@
 353              	.LVL17:
 354              	.L23:
 169:../STM32Cube_FW_F4_V1.4.0/Drivers/STM32F4xx_HAL_Driver/Src/stm32f4xx_hal_dma_ex.c **** 
 355              		.loc 1 169 0
 356 00a2 0220     		movs	r0, #2	@ D.8260,
 357              	.LVL18:
 216:../STM32Cube_FW_F4_V1.4.0/Drivers/STM32F4xx_HAL_Driver/Src/stm32f4xx_hal_dma_ex.c **** 
 358              		.loc 1 216 0
 359 00a4 BDE8F081 		pop	{r4, r5, r6, r7, r8, pc}	@
 360              	.LVL19:
 361              	.L29:
 362              		.align	2
 363              	.L28:
 364 00a8 00000000 		.word	.LC0
 365              		.cfi_endproc
 366              	.LFE124:
 367              		.size	HAL_DMAEx_MultiBufferStart_IT, .-HAL_DMAEx_MultiBufferStart_IT
 368              		.section	.text.HAL_DMAEx_ChangeMemory,"ax",%progbits
 369              		.align	1
 370              		.global	HAL_DMAEx_ChangeMemory
 371              		.thumb
 372              		.thumb_func
 373              		.type	HAL_DMAEx_ChangeMemory, %function
 374              	HAL_DMAEx_ChangeMemory:
 375              	.LFB125:
 233:../STM32Cube_FW_F4_V1.4.0/Drivers/STM32F4xx_HAL_Driver/Src/stm32f4xx_hal_dma_ex.c ****   if(memory == MEMORY0)
 376              		.loc 1 233 0
 377              		.cfi_startproc
 378              		@ args = 0, pretend = 0, frame = 0
 379              		@ frame_needed = 0, uses_anonymous_args = 0
 380              		@ link register save eliminated.
 381              	.LVL20:
 382 0000 0368     		ldr	r3, [r0]	@ D.8266, hdma_4(D)->Instance
 234:../STM32Cube_FW_F4_V1.4.0/Drivers/STM32F4xx_HAL_Driver/Src/stm32f4xx_hal_dma_ex.c ****   {
 383              		.loc 1 234 0
 384 0002 0AB9     		cbnz	r2, .L31	@ memory,
 237:../STM32Cube_FW_F4_V1.4.0/Drivers/STM32F4xx_HAL_Driver/Src/stm32f4xx_hal_dma_ex.c ****   }
 385              		.loc 1 237 0
 386 0004 D960     		str	r1, [r3, #12]	@ Address, _5->M0AR
 387 0006 00E0     		b	.L32	@
 388              	.L31:
 242:../STM32Cube_FW_F4_V1.4.0/Drivers/STM32F4xx_HAL_Driver/Src/stm32f4xx_hal_dma_ex.c ****   }
 389              		.loc 1 242 0
 390 0008 1961     		str	r1, [r3, #16]	@ Address, _8->M1AR
 391              	.L32:
 246:../STM32Cube_FW_F4_V1.4.0/Drivers/STM32F4xx_HAL_Driver/Src/stm32f4xx_hal_dma_ex.c **** 
 392              		.loc 1 246 0
 393 000a 0020     		movs	r0, #0	@,
 394              	.LVL21:
 395 000c 7047     		bx	lr	@
 396              		.cfi_endproc
 397              	.LFE125:
 398              		.size	HAL_DMAEx_ChangeMemory, .-HAL_DMAEx_ChangeMemory
 399              		.section	.rodata.str1.1,"aMS",%progbits,1
 400              	.LC0:
ARM GAS  C:\cygwin\tmp\cc7ot9iS.s 			page 14


 401 0000 2E2E2F53 		.ascii	"../STM32Cube_FW_F4_V1.4.0/Drivers/STM32F4xx_HAL_Dri"
 401      544D3332 
 401      43756265 
 401      5F46575F 
 401      46345F56 
 402 0033 7665722F 		.ascii	"ver/Src/stm32f4xx_hal_dma_ex.c\000"
 402      5372632F 
 402      73746D33 
 402      32663478 
 402      785F6861 
 403              		.text
 404              	.Letext0:
 405              		.file 2 "c:\\program files\\gcc-arm-none-eabi-4_9-2014\\arm-none-eabi\\include\\machine\\_default_
 406              		.file 3 "c:\\program files\\gcc-arm-none-eabi-4_9-2014\\arm-none-eabi\\include\\stdint.h"
 407              		.file 4 "../STM32Cube_FW_F4_V1.4.0/Drivers/CMSIS/Device/ST/STM32F4xx/Include/stm32f437xx.h"
 408              		.file 5 "../STM32Cube_FW_F4_V1.4.0/Drivers/STM32F4xx_HAL_Driver/Inc/stm32f4xx_hal_def.h"
 409              		.file 6 "../STM32Cube_FW_F4_V1.4.0/Drivers/STM32F4xx_HAL_Driver/Inc/stm32f4xx_hal_dma.h"
 410              		.file 7 "../STM32Cube_FW_F4_V1.4.0/Drivers/STM32F4xx_HAL_Driver/Inc/stm32f4xx_hal_dma_ex.h"
 411              		.file 8 "../STM32Cube_FW_F4_V1.4.0/Drivers/CMSIS/Include/core_cm4.h"
 412              		.file 9 "Inc/stm32f4xx_hal_conf.h"